<?xml version="1.0" encoding="UTF-8"?>
<LIBRARY NAME="msvcp60.dll" PATH="C:\Windows\SysWOW64\MSVCP60.DLL" DATE="Tue Mar 19 05:45:20 CET 2019" VERSION="7.0.18362.1 (WinBuild.160101.0800)">
    <EXPORT ORDINAL="1" NAME="??5std@@YAAAV?$basic_istream@DU?$char_traits@D@std@@@0@AAV10@AAC@Z" PURGE="0" COMMENT="" />
    <EXPORT ORDINAL="2" NAME="??5std@@YAAAV?$basic_istream@DU?$char_traits@D@std@@@0@AAV10@AAD@Z" PURGE="0" COMMENT="" />
    <EXPORT ORDINAL="3" NAME="??5std@@YAAAV?$basic_istream@DU?$char_traits@D@std@@@0@AAV10@AAE@Z" PURGE="0" COMMENT="" />
    <EXPORT ORDINAL="4" NAME="??5std@@YAAAV?$basic_istream@DU?$char_traits@D@std@@@0@AAV10@PAC@Z" PURGE="0" COMMENT="" />
    <EXPORT ORDINAL="5" NAME="??5std@@YAAAV?$basic_istream@DU?$char_traits@D@std@@@0@AAV10@PAD@Z" PURGE="0" COMMENT="" />
    <EXPORT ORDINAL="6" NAME="??5std@@YAAAV?$basic_istream@DU?$char_traits@D@std@@@0@AAV10@PAE@Z" PURGE="0" COMMENT="" />
    <EXPORT ORDINAL="7" NAME="??5std@@YAAAV?$basic_istream@DU?$char_traits@D@std@@@0@AAV10@AAV?$complex@M@0@@Z" PURGE="0" COMMENT="" />
    <EXPORT ORDINAL="8" NAME="??5std@@YAAAV?$basic_istream@DU?$char_traits@D@std@@@0@AAV10@AAV?$complex@N@0@@Z" PURGE="0" COMMENT="" />
    <EXPORT ORDINAL="9" NAME="??5std@@YAAAV?$basic_istream@DU?$char_traits@D@std@@@0@AAV10@AAV?$complex@O@0@@Z" PURGE="0" COMMENT="" />
    <EXPORT ORDINAL="10" NAME="??5std@@YAAAV?$basic_istream@DU?$char_traits@D@std@@@0@AAV10@AAV?$basic_string@DU?$char_traits@D@std@@V?$allocator@D@2@@0@@Z" PURGE="0" COMMENT="" />
    <EXPORT ORDINAL="11" NAME="??5std@@YAAAV?$basic_istream@GU?$char_traits@G@std@@@0@AAV10@AAG@Z" PURGE="0" COMMENT="" />
    <EXPORT ORDINAL="12" NAME="??5std@@YAAAV?$basic_istream@GU?$char_traits@G@std@@@0@AAV10@PAF@Z" PURGE="0" COMMENT="" />
    <EXPORT ORDINAL="13" NAME="??5std@@YAAAV?$basic_istream@GU?$char_traits@G@std@@@0@AAV10@PAG@Z" PURGE="0" COMMENT="" />
    <EXPORT ORDINAL="14" NAME="??5std@@YAAAV?$basic_istream@GU?$char_traits@G@std@@@0@AAV10@AAV?$complex@M@0@@Z" PURGE="0" COMMENT="" />
    <EXPORT ORDINAL="15" NAME="??5std@@YAAAV?$basic_istream@GU?$char_traits@G@std@@@0@AAV10@AAV?$complex@N@0@@Z" PURGE="0" COMMENT="" />
    <EXPORT ORDINAL="16" NAME="??5std@@YAAAV?$basic_istream@GU?$char_traits@G@std@@@0@AAV10@AAV?$complex@O@0@@Z" PURGE="0" COMMENT="" />
    <EXPORT ORDINAL="17" NAME="??5std@@YAAAV?$basic_istream@GU?$char_traits@G@std@@@0@AAV10@AAV?$basic_string@GU?$char_traits@G@std@@V?$allocator@G@2@@0@@Z" PURGE="0" COMMENT="" />
    <EXPORT ORDINAL="18" NAME="??6std@@YAAAV?$basic_ostream@DU?$char_traits@D@std@@@0@AAV10@C@Z" PURGE="0" COMMENT="" />
    <EXPORT ORDINAL="19" NAME="??6std@@YAAAV?$basic_ostream@DU?$char_traits@D@std@@@0@AAV10@D@Z" PURGE="0" COMMENT="" />
    <EXPORT ORDINAL="20" NAME="??6std@@YAAAV?$basic_ostream@DU?$char_traits@D@std@@@0@AAV10@E@Z" PURGE="0" COMMENT="" />
    <EXPORT ORDINAL="21" NAME="??6std@@YAAAV?$basic_ostream@DU?$char_traits@D@std@@@0@AAV10@PBC@Z" PURGE="0" COMMENT="" />
    <EXPORT ORDINAL="22" NAME="??6std@@YAAAV?$basic_ostream@DU?$char_traits@D@std@@@0@AAV10@PBD@Z" PURGE="0" COMMENT="" />
    <EXPORT ORDINAL="23" NAME="??6std@@YAAAV?$basic_ostream@DU?$char_traits@D@std@@@0@AAV10@PBE@Z" PURGE="0" COMMENT="" />
    <EXPORT ORDINAL="24" NAME="??6std@@YAAAV?$basic_ostream@DU?$char_traits@D@std@@@0@AAV10@ABV?$complex@M@0@@Z" PURGE="0" COMMENT="" />
    <EXPORT ORDINAL="25" NAME="??6std@@YAAAV?$basic_ostream@DU?$char_traits@D@std@@@0@AAV10@ABV?$complex@N@0@@Z" PURGE="0" COMMENT="" />
    <EXPORT ORDINAL="26" NAME="??6std@@YAAAV?$basic_ostream@DU?$char_traits@D@std@@@0@AAV10@ABV?$complex@O@0@@Z" PURGE="0" COMMENT="" />
    <EXPORT ORDINAL="27" NAME="??6std@@YAAAV?$basic_ostream@DU?$char_traits@D@std@@@0@AAV10@ABV?$basic_string@DU?$char_traits@D@std@@V?$allocator@D@2@@0@@Z" PURGE="0" COMMENT="" />
    <EXPORT ORDINAL="28" NAME="??6std@@YAAAV?$basic_ostream@GU?$char_traits@G@std@@@0@AAV10@G@Z" PURGE="0" COMMENT="" />
    <EXPORT ORDINAL="29" NAME="??6std@@YAAAV?$basic_ostream@GU?$char_traits@G@std@@@0@AAV10@PBF@Z" PURGE="0" COMMENT="" />
    <EXPORT ORDINAL="30" NAME="??6std@@YAAAV?$basic_ostream@GU?$char_traits@G@std@@@0@AAV10@PBG@Z" PURGE="0" COMMENT="" />
    <EXPORT ORDINAL="31" NAME="??6std@@YAAAV?$basic_ostream@GU?$char_traits@G@std@@@0@AAV10@ABV?$complex@M@0@@Z" PURGE="0" COMMENT="" />
    <EXPORT ORDINAL="32" NAME="??6std@@YAAAV?$basic_ostream@GU?$char_traits@G@std@@@0@AAV10@ABV?$complex@N@0@@Z" PURGE="0" COMMENT="" />
    <EXPORT ORDINAL="33" NAME="??6std@@YAAAV?$basic_ostream@GU?$char_traits@G@std@@@0@AAV10@ABV?$complex@O@0@@Z" PURGE="0" COMMENT="" />
    <EXPORT ORDINAL="34" NAME="??6std@@YAAAV?$basic_ostream@GU?$char_traits@G@std@@@0@AAV10@ABV?$basic_string@GU?$char_traits@G@std@@V?$allocator@G@2@@0@@Z" PURGE="0" COMMENT="" />
    <EXPORT ORDINAL="35" NAME="??8std@@YA_NABV?$basic_string@DU?$char_traits@D@std@@V?$allocator@D@2@@0@0@Z" PURGE="0" COMMENT="" />
    <EXPORT ORDINAL="36" NAME="??8std@@YA_NABV?$basic_string@DU?$char_traits@D@std@@V?$allocator@D@2@@0@PBD@Z" PURGE="0" COMMENT="" />
    <EXPORT ORDINAL="37" NAME="??8std@@YA_NPBDABV?$basic_string@DU?$char_traits@D@std@@V?$allocator@D@2@@0@@Z" PURGE="0" COMMENT="" />
    <EXPORT ORDINAL="38" NAME="??8std@@YA_NABV?$basic_string@GU?$char_traits@G@std@@V?$allocator@G@2@@0@0@Z" PURGE="0" COMMENT="" />
    <EXPORT ORDINAL="39" NAME="??8std@@YA_NABV?$basic_string@GU?$char_traits@G@std@@V?$allocator@G@2@@0@PBG@Z" PURGE="0" COMMENT="" />
    <EXPORT ORDINAL="40" NAME="??8std@@YA_NPBGABV?$basic_string@GU?$char_traits@G@std@@V?$allocator@G@2@@0@@Z" PURGE="0" COMMENT="" />
    <EXPORT ORDINAL="41" NAME="??8std@@YA_NABMABV?$complex@M@0@@Z" PURGE="0" COMMENT="" />
    <EXPORT ORDINAL="42" NAME="??8std@@YA_NABV?$complex@M@0@0@Z" PURGE="0" COMMENT="" />
    <EXPORT ORDINAL="43" NAME="??8std@@YA_NABV?$complex@M@0@ABM@Z" PURGE="0" COMMENT="" />
    <EXPORT ORDINAL="44" NAME="??8std@@YA_NABNABV?$complex@N@0@@Z" PURGE="0" COMMENT="" />
    <EXPORT ORDINAL="45" NAME="??8std@@YA_NABV?$complex@N@0@0@Z" PURGE="0" COMMENT="" />
    <EXPORT ORDINAL="46" NAME="??8std@@YA_NABV?$complex@N@0@ABN@Z" PURGE="0" COMMENT="" />
    <EXPORT ORDINAL="47" NAME="??8std@@YA_NABOABV?$complex@O@0@@Z" PURGE="0" COMMENT="" />
    <EXPORT ORDINAL="48" NAME="??8std@@YA_NABV?$complex@O@0@0@Z" PURGE="0" COMMENT="" />
    <EXPORT ORDINAL="49" NAME="??8std@@YA_NABV?$complex@O@0@ABO@Z" PURGE="0" COMMENT="" />
    <EXPORT ORDINAL="50" NAME="??9std@@YA_NABV?$basic_string@DU?$char_traits@D@std@@V?$allocator@D@2@@0@0@Z" PURGE="0" COMMENT="" />
    <EXPORT ORDINAL="51" NAME="??9std@@YA_NABV?$basic_string@DU?$char_traits@D@std@@V?$allocator@D@2@@0@PBD@Z" PURGE="0" COMMENT="" />
    <EXPORT ORDINAL="52" NAME="??9std@@YA_NPBDABV?$basic_string@DU?$char_traits@D@std@@V?$allocator@D@2@@0@@Z" PURGE="0" COMMENT="" />
    <EXPORT ORDINAL="53" NAME="??9std@@YA_NABV?$basic_string@GU?$char_traits@G@std@@V?$allocator@G@2@@0@0@Z" PURGE="0" COMMENT="" />
    <EXPORT ORDINAL="54" NAME="??9std@@YA_NABV?$basic_string@GU?$char_traits@G@std@@V?$allocator@G@2@@0@PBG@Z" PURGE="0" COMMENT="" />
    <EXPORT ORDINAL="55" NAME="??9std@@YA_NPBGABV?$basic_string@GU?$char_traits@G@std@@V?$allocator@G@2@@0@@Z" PURGE="0" COMMENT="" />
    <EXPORT ORDINAL="56" NAME="??9std@@YA_NABMABV?$complex@M@0@@Z" PURGE="0" COMMENT="" />
    <EXPORT ORDINAL="57" NAME="??9std@@YA_NABV?$complex@M@0@0@Z" PURGE="0" COMMENT="" />
    <EXPORT ORDINAL="58" NAME="??9std@@YA_NABV?$complex@M@0@ABM@Z" PURGE="0" COMMENT="" />
    <EXPORT ORDINAL="59" NAME="??9std@@YA_NABNABV?$complex@N@0@@Z" PURGE="0" COMMENT="" />
    <EXPORT ORDINAL="60" NAME="??9std@@YA_NABV?$complex@N@0@0@Z" PURGE="0" COMMENT="" />
    <EXPORT ORDINAL="61" NAME="??9std@@YA_NABV?$complex@N@0@ABN@Z" PURGE="0" COMMENT="" />
    <EXPORT ORDINAL="62" NAME="??9std@@YA_NABOABV?$complex@O@0@@Z" PURGE="0" COMMENT="" />
    <EXPORT ORDINAL="63" NAME="??9std@@YA_NABV?$complex@O@0@0@Z" PURGE="0" COMMENT="" />
    <EXPORT ORDINAL="64" NAME="??9std@@YA_NABV?$complex@O@0@ABO@Z" PURGE="0" COMMENT="" />
    <EXPORT ORDINAL="65" NAME="??Dstd@@YA?AV?$complex@M@0@ABMABV10@@Z" PURGE="0" COMMENT="" />
    <EXPORT ORDINAL="66" NAME="??Dstd@@YA?AV?$complex@M@0@ABV10@0@Z" PURGE="0" COMMENT="" />
    <EXPORT ORDINAL="67" NAME="??Dstd@@YA?AV?$complex@M@0@ABV10@ABM@Z" PURGE="0" COMMENT="" />
    <EXPORT ORDINAL="68" NAME="??Dstd@@YA?AV?$complex@N@0@ABNABV10@@Z" PURGE="0" COMMENT="" />
    <EXPORT ORDINAL="69" NAME="??Dstd@@YA?AV?$complex@N@0@ABV10@0@Z" PURGE="0" COMMENT="" />
    <EXPORT ORDINAL="70" NAME="??Dstd@@YA?AV?$complex@N@0@ABV10@ABN@Z" PURGE="0" COMMENT="" />
    <EXPORT ORDINAL="71" NAME="??Dstd@@YA?AV?$complex@O@0@ABOABV10@@Z" PURGE="0" COMMENT="" />
    <EXPORT ORDINAL="72" NAME="??Dstd@@YA?AV?$complex@O@0@ABV10@0@Z" PURGE="0" COMMENT="" />
    <EXPORT ORDINAL="73" NAME="??Dstd@@YA?AV?$complex@O@0@ABV10@ABO@Z" PURGE="0" COMMENT="" />
    <EXPORT ORDINAL="74" NAME="??Gstd@@YA?AV?$complex@M@0@ABMABV10@@Z" PURGE="0" COMMENT="" />
    <EXPORT ORDINAL="75" NAME="??Gstd@@YA?AV?$complex@M@0@ABV10@0@Z" PURGE="0" COMMENT="" />
    <EXPORT ORDINAL="76" NAME="??Gstd@@YA?AV?$complex@M@0@ABV10@@Z" PURGE="0" COMMENT="" />
    <EXPORT ORDINAL="77" NAME="??Gstd@@YA?AV?$complex@M@0@ABV10@ABM@Z" PURGE="0" COMMENT="" />
    <EXPORT ORDINAL="78" NAME="??Gstd@@YA?AV?$complex@N@0@ABNABV10@@Z" PURGE="0" COMMENT="" />
    <EXPORT ORDINAL="79" NAME="??Gstd@@YA?AV?$complex@N@0@ABV10@0@Z" PURGE="0" COMMENT="" />
    <EXPORT ORDINAL="80" NAME="??Gstd@@YA?AV?$complex@N@0@ABV10@@Z" PURGE="0" COMMENT="" />
    <EXPORT ORDINAL="81" NAME="??Gstd@@YA?AV?$complex@N@0@ABV10@ABN@Z" PURGE="0" COMMENT="" />
    <EXPORT ORDINAL="82" NAME="??Gstd@@YA?AV?$complex@O@0@ABOABV10@@Z" PURGE="0" COMMENT="" />
    <EXPORT ORDINAL="83" NAME="??Gstd@@YA?AV?$complex@O@0@ABV10@0@Z" PURGE="0" COMMENT="" />
    <EXPORT ORDINAL="84" NAME="??Gstd@@YA?AV?$complex@O@0@ABV10@@Z" PURGE="0" COMMENT="" />
    <EXPORT ORDINAL="85" NAME="??Gstd@@YA?AV?$complex@O@0@ABV10@ABO@Z" PURGE="0" COMMENT="" />
    <EXPORT ORDINAL="86" NAME="??Hstd@@YA?AV?$basic_string@DU?$char_traits@D@std@@V?$allocator@D@2@@0@ABV10@0@Z" PURGE="0" COMMENT="" />
    <EXPORT ORDINAL="87" NAME="??Hstd@@YA?AV?$basic_string@DU?$char_traits@D@std@@V?$allocator@D@2@@0@ABV10@D@Z" PURGE="0" COMMENT="" />
    <EXPORT ORDINAL="88" NAME="??Hstd@@YA?AV?$basic_string@DU?$char_traits@D@std@@V?$allocator@D@2@@0@ABV10@PBD@Z" PURGE="0" COMMENT="" />
    <EXPORT ORDINAL="89" NAME="??Hstd@@YA?AV?$basic_string@DU?$char_traits@D@std@@V?$allocator@D@2@@0@DABV10@@Z" PURGE="0" COMMENT="" />
    <EXPORT ORDINAL="90" NAME="??Hstd@@YA?AV?$basic_string@DU?$char_traits@D@std@@V?$allocator@D@2@@0@PBDABV10@@Z" PURGE="0" COMMENT="" />
    <EXPORT ORDINAL="91" NAME="??Hstd@@YA?AV?$basic_string@GU?$char_traits@G@std@@V?$allocator@G@2@@0@ABV10@0@Z" PURGE="0" COMMENT="" />
    <EXPORT ORDINAL="92" NAME="??Hstd@@YA?AV?$basic_string@GU?$char_traits@G@std@@V?$allocator@G@2@@0@ABV10@G@Z" PURGE="0" COMMENT="" />
    <EXPORT ORDINAL="93" NAME="??Hstd@@YA?AV?$basic_string@GU?$char_traits@G@std@@V?$allocator@G@2@@0@ABV10@PBG@Z" PURGE="0" COMMENT="" />
    <EXPORT ORDINAL="94" NAME="??Hstd@@YA?AV?$basic_string@GU?$char_traits@G@std@@V?$allocator@G@2@@0@GABV10@@Z" PURGE="0" COMMENT="" />
    <EXPORT ORDINAL="95" NAME="??Hstd@@YA?AV?$basic_string@GU?$char_traits@G@std@@V?$allocator@G@2@@0@PBGABV10@@Z" PURGE="0" COMMENT="" />
    <EXPORT ORDINAL="96" NAME="??Hstd@@YA?AV?$complex@M@0@ABMABV10@@Z" PURGE="0" COMMENT="" />
    <EXPORT ORDINAL="97" NAME="??Hstd@@YA?AV?$complex@M@0@ABV10@0@Z" PURGE="0" COMMENT="" />
    <EXPORT ORDINAL="98" NAME="??Hstd@@YA?AV?$complex@M@0@ABV10@@Z" PURGE="0" COMMENT="" />
    <EXPORT ORDINAL="99" NAME="??Hstd@@YA?AV?$complex@M@0@ABV10@ABM@Z" PURGE="0" COMMENT="" />
    <EXPORT ORDINAL="100" NAME="??Hstd@@YA?AV?$complex@N@0@ABNABV10@@Z" PURGE="0" COMMENT="" />
    <EXPORT ORDINAL="101" NAME="??Hstd@@YA?AV?$complex@N@0@ABV10@0@Z" PURGE="0" COMMENT="" />
    <EXPORT ORDINAL="102" NAME="??Hstd@@YA?AV?$complex@N@0@ABV10@@Z" PURGE="0" COMMENT="" />
    <EXPORT ORDINAL="103" NAME="??Hstd@@YA?AV?$complex@N@0@ABV10@ABN@Z" PURGE="0" COMMENT="" />
    <EXPORT ORDINAL="104" NAME="??Hstd@@YA?AV?$complex@O@0@ABOABV10@@Z" PURGE="0" COMMENT="" />
    <EXPORT ORDINAL="105" NAME="??Hstd@@YA?AV?$complex@O@0@ABV10@0@Z" PURGE="0" COMMENT="" />
    <EXPORT ORDINAL="106" NAME="??Hstd@@YA?AV?$complex@O@0@ABV10@@Z" PURGE="0" COMMENT="" />
    <EXPORT ORDINAL="107" NAME="??Hstd@@YA?AV?$complex@O@0@ABV10@ABO@Z" PURGE="0" COMMENT="" />
    <EXPORT ORDINAL="108" NAME="??Kstd@@YA?AV?$complex@M@0@ABMABV10@@Z" PURGE="0" COMMENT="" />
    <EXPORT ORDINAL="109" NAME="??Kstd@@YA?AV?$complex@M@0@ABV10@0@Z" PURGE="0" COMMENT="" />
    <EXPORT ORDINAL="110" NAME="??Kstd@@YA?AV?$complex@M@0@ABV10@ABM@Z" PURGE="0" COMMENT="" />
    <EXPORT ORDINAL="111" NAME="??Kstd@@YA?AV?$complex@N@0@ABNABV10@@Z" PURGE="0" COMMENT="" />
    <EXPORT ORDINAL="112" NAME="??Kstd@@YA?AV?$complex@N@0@ABV10@0@Z" PURGE="0" COMMENT="" />
    <EXPORT ORDINAL="113" NAME="??Kstd@@YA?AV?$complex@N@0@ABV10@ABN@Z" PURGE="0" COMMENT="" />
    <EXPORT ORDINAL="114" NAME="??Kstd@@YA?AV?$complex@O@0@ABOABV10@@Z" PURGE="0" COMMENT="" />
    <EXPORT ORDINAL="115" NAME="??Kstd@@YA?AV?$complex@O@0@ABV10@0@Z" PURGE="0" COMMENT="" />
    <EXPORT ORDINAL="116" NAME="??Kstd@@YA?AV?$complex@O@0@ABV10@ABO@Z" PURGE="0" COMMENT="" />
    <EXPORT ORDINAL="117" NAME="??Mstd@@YA_NABV?$basic_string@DU?$char_traits@D@std@@V?$allocator@D@2@@0@0@Z" PURGE="0" COMMENT="" />
    <EXPORT ORDINAL="118" NAME="??Mstd@@YA_NABV?$basic_string@DU?$char_traits@D@std@@V?$allocator@D@2@@0@PBD@Z" PURGE="0" COMMENT="" />
    <EXPORT ORDINAL="119" NAME="??Mstd@@YA_NPBDABV?$basic_string@DU?$char_traits@D@std@@V?$allocator@D@2@@0@@Z" PURGE="0" COMMENT="" />
    <EXPORT ORDINAL="120" NAME="??Mstd@@YA_NABV?$basic_string@GU?$char_traits@G@std@@V?$allocator@G@2@@0@0@Z" PURGE="0" COMMENT="" />
    <EXPORT ORDINAL="121" NAME="??Mstd@@YA_NABV?$basic_string@GU?$char_traits@G@std@@V?$allocator@G@2@@0@PBG@Z" PURGE="0" COMMENT="" />
    <EXPORT ORDINAL="122" NAME="??Mstd@@YA_NPBGABV?$basic_string@GU?$char_traits@G@std@@V?$allocator@G@2@@0@@Z" PURGE="0" COMMENT="" />
    <EXPORT ORDINAL="123" NAME="??Nstd@@YA_NABV?$basic_string@DU?$char_traits@D@std@@V?$allocator@D@2@@0@0@Z" PURGE="0" COMMENT="" />
    <EXPORT ORDINAL="124" NAME="??Nstd@@YA_NABV?$basic_string@DU?$char_traits@D@std@@V?$allocator@D@2@@0@PBD@Z" PURGE="0" COMMENT="" />
    <EXPORT ORDINAL="125" NAME="??Nstd@@YA_NPBDABV?$basic_string@DU?$char_traits@D@std@@V?$allocator@D@2@@0@@Z" PURGE="0" COMMENT="" />
    <EXPORT ORDINAL="126" NAME="??Nstd@@YA_NABV?$basic_string@GU?$char_traits@G@std@@V?$allocator@G@2@@0@0@Z" PURGE="0" COMMENT="" />
    <EXPORT ORDINAL="127" NAME="??Nstd@@YA_NABV?$basic_string@GU?$char_traits@G@std@@V?$allocator@G@2@@0@PBG@Z" PURGE="0" COMMENT="" />
    <EXPORT ORDINAL="128" NAME="??Nstd@@YA_NPBGABV?$basic_string@GU?$char_traits@G@std@@V?$allocator@G@2@@0@@Z" PURGE="0" COMMENT="" />
    <EXPORT ORDINAL="129" NAME="??Ostd@@YA_NABV?$basic_string@DU?$char_traits@D@std@@V?$allocator@D@2@@0@0@Z" PURGE="0" COMMENT="" />
    <EXPORT ORDINAL="130" NAME="??Ostd@@YA_NABV?$basic_string@DU?$char_traits@D@std@@V?$allocator@D@2@@0@PBD@Z" PURGE="0" COMMENT="" />
    <EXPORT ORDINAL="131" NAME="??Ostd@@YA_NPBDABV?$basic_string@DU?$char_traits@D@std@@V?$allocator@D@2@@0@@Z" PURGE="0" COMMENT="" />
    <EXPORT ORDINAL="132" NAME="??Ostd@@YA_NABV?$basic_string@GU?$char_traits@G@std@@V?$allocator@G@2@@0@0@Z" PURGE="0" COMMENT="" />
    <EXPORT ORDINAL="133" NAME="??Ostd@@YA_NABV?$basic_string@GU?$char_traits@G@std@@V?$allocator@G@2@@0@PBG@Z" PURGE="0" COMMENT="" />
    <EXPORT ORDINAL="134" NAME="??Ostd@@YA_NPBGABV?$basic_string@GU?$char_traits@G@std@@V?$allocator@G@2@@0@@Z" PURGE="0" COMMENT="" />
    <EXPORT ORDINAL="135" NAME="??Pstd@@YA_NABV?$basic_string@DU?$char_traits@D@std@@V?$allocator@D@2@@0@0@Z" PURGE="0" COMMENT="" />
    <EXPORT ORDINAL="136" NAME="??Pstd@@YA_NABV?$basic_string@DU?$char_traits@D@std@@V?$allocator@D@2@@0@PBD@Z" PURGE="0" COMMENT="" />
    <EXPORT ORDINAL="137" NAME="??Pstd@@YA_NPBDABV?$basic_string@DU?$char_traits@D@std@@V?$allocator@D@2@@0@@Z" PURGE="0" COMMENT="" />
    <EXPORT ORDINAL="138" NAME="??Pstd@@YA_NABV?$basic_string@GU?$char_traits@G@std@@V?$allocator@G@2@@0@0@Z" PURGE="0" COMMENT="" />
    <EXPORT ORDINAL="139" NAME="??Pstd@@YA_NABV?$basic_string@GU?$char_traits@G@std@@V?$allocator@G@2@@0@PBG@Z" PURGE="0" COMMENT="" />
    <EXPORT ORDINAL="140" NAME="??Pstd@@YA_NPBGABV?$basic_string@GU?$char_traits@G@std@@V?$allocator@G@2@@0@@Z" PURGE="0" COMMENT="" />
    <EXPORT ORDINAL="141" NAME="??Xstd@@YAAAV?$complex@M@0@AAV10@ABV10@@Z" PURGE="0" COMMENT="" />
    <EXPORT ORDINAL="142" NAME="??Xstd@@YAAAV?$complex@N@0@AAV10@ABV10@@Z" PURGE="0" COMMENT="" />
    <EXPORT ORDINAL="143" NAME="??Xstd@@YAAAV?$complex@O@0@AAV10@ABV10@@Z" PURGE="0" COMMENT="" />
    <EXPORT ORDINAL="144" NAME="??Ystd@@YAAAV?$complex@M@0@AAV10@ABV10@@Z" PURGE="0" COMMENT="" />
    <EXPORT ORDINAL="145" NAME="??Ystd@@YAAAV?$complex@N@0@AAV10@ABV10@@Z" PURGE="0" COMMENT="" />
    <EXPORT ORDINAL="146" NAME="??Ystd@@YAAAV?$complex@O@0@AAV10@ABV10@@Z" PURGE="0" COMMENT="" />
    <EXPORT ORDINAL="147" NAME="??Zstd@@YAAAV?$complex@M@0@AAV10@ABV10@@Z" PURGE="0" COMMENT="" />
    <EXPORT ORDINAL="148" NAME="??Zstd@@YAAAV?$complex@N@0@AAV10@ABV10@@Z" PURGE="0" COMMENT="" />
    <EXPORT ORDINAL="149" NAME="??Zstd@@YAAAV?$complex@O@0@AAV10@ABV10@@Z" PURGE="0" COMMENT="" />
    <EXPORT ORDINAL="150" NAME="??_0std@@YAAAV?$complex@M@0@AAV10@ABV10@@Z" PURGE="0" COMMENT="" />
    <EXPORT ORDINAL="151" NAME="??_0std@@YAAAV?$complex@N@0@AAV10@ABV10@@Z" PURGE="0" COMMENT="" />
    <EXPORT ORDINAL="152" NAME="??_0std@@YAAAV?$complex@O@0@AAV10@ABV10@@Z" PURGE="0" COMMENT="" />
    <EXPORT ORDINAL="153" NAME="?_Fabs@std@@YAMABV?$complex@M@1@PAH@Z" PURGE="0" COMMENT="" />
    <EXPORT ORDINAL="154" NAME="?_Fabs@std@@YANABV?$complex@N@1@PAH@Z" PURGE="0" COMMENT="" />
    <EXPORT ORDINAL="155" NAME="?_Fabs@std@@YAOABV?$complex@O@1@PAH@Z" PURGE="0" COMMENT="" />
    <EXPORT ORDINAL="156" NAME="?abs@std@@YAMABV?$complex@M@1@@Z" PURGE="0" COMMENT="" />
    <EXPORT ORDINAL="157" NAME="?abs@std@@YANABV?$complex@N@1@@Z" PURGE="0" COMMENT="" />
    <EXPORT ORDINAL="158" NAME="?abs@std@@YAOABV?$complex@O@1@@Z" PURGE="0" COMMENT="" />
    <EXPORT ORDINAL="159" NAME="?arg@std@@YAMABV?$complex@M@1@@Z" PURGE="0" COMMENT="" />
    <EXPORT ORDINAL="160" NAME="?arg@std@@YANABV?$complex@N@1@@Z" PURGE="-1" COMMENT="" />
    <EXPORT ORDINAL="161" NAME="?arg@std@@YAOABV?$complex@O@1@@Z" PURGE="-1" COMMENT="" />
    <EXPORT ORDINAL="162" NAME="?conj@std@@YA?AV?$complex@M@1@ABV21@@Z" PURGE="0" COMMENT="" />
    <EXPORT ORDINAL="163" NAME="?conj@std@@YA?AV?$complex@N@1@ABV21@@Z" PURGE="0" COMMENT="" />
    <EXPORT ORDINAL="164" NAME="?conj@std@@YA?AV?$complex@O@1@ABV21@@Z" PURGE="0" COMMENT="" />
    <EXPORT ORDINAL="165" NAME="?cos@std@@YA?AV?$complex@M@1@ABV21@@Z" PURGE="0" COMMENT="" />
    <EXPORT ORDINAL="166" NAME="?cos@std@@YA?AV?$complex@N@1@ABV21@@Z" PURGE="0" COMMENT="" />
    <EXPORT ORDINAL="167" NAME="?cos@std@@YA?AV?$complex@O@1@ABV21@@Z" PURGE="0" COMMENT="" />
    <EXPORT ORDINAL="168" NAME="?cosh@std@@YA?AV?$complex@M@1@ABV21@@Z" PURGE="0" COMMENT="" />
    <EXPORT ORDINAL="169" NAME="?cosh@std@@YA?AV?$complex@N@1@ABV21@@Z" PURGE="0" COMMENT="" />
    <EXPORT ORDINAL="170" NAME="?cosh@std@@YA?AV?$complex@O@1@ABV21@@Z" PURGE="0" COMMENT="" />
    <EXPORT ORDINAL="171" NAME="?exp@std@@YA?AV?$complex@M@1@ABV21@@Z" PURGE="0" COMMENT="" />
    <EXPORT ORDINAL="172" NAME="?exp@std@@YA?AV?$complex@N@1@ABV21@@Z" PURGE="0" COMMENT="" />
    <EXPORT ORDINAL="173" NAME="?exp@std@@YA?AV?$complex@O@1@ABV21@@Z" PURGE="0" COMMENT="" />
    <EXPORT ORDINAL="174" NAME="?getline@std@@YAAAV?$basic_istream@DU?$char_traits@D@std@@@1@AAV21@AAV?$basic_string@DU?$char_traits@D@std@@V?$allocator@D@2@@1@@Z" PURGE="0" COMMENT="" />
    <EXPORT ORDINAL="175" NAME="?getline@std@@YAAAV?$basic_istream@DU?$char_traits@D@std@@@1@AAV21@AAV?$basic_string@DU?$char_traits@D@std@@V?$allocator@D@2@@1@D@Z" PURGE="0" COMMENT="" />
    <EXPORT ORDINAL="176" NAME="?getline@std@@YAAAV?$basic_istream@GU?$char_traits@G@std@@@1@AAV21@AAV?$basic_string@GU?$char_traits@G@std@@V?$allocator@G@2@@1@@Z" PURGE="0" COMMENT="" />
    <EXPORT ORDINAL="177" NAME="?getline@std@@YAAAV?$basic_istream@GU?$char_traits@G@std@@@1@AAV21@AAV?$basic_string@GU?$char_traits@G@std@@V?$allocator@G@2@@1@G@Z" PURGE="0" COMMENT="" />
    <EXPORT ORDINAL="178" NAME="?imag@std@@YAMABV?$complex@M@1@@Z" PURGE="0" COMMENT="" />
    <EXPORT ORDINAL="179" NAME="?imag@std@@YANABV?$complex@N@1@@Z" PURGE="0" COMMENT="" />
    <EXPORT ORDINAL="180" NAME="?imag@std@@YAOABV?$complex@O@1@@Z" PURGE="0" COMMENT="" />
    <EXPORT ORDINAL="181" NAME="?log10@std@@YA?AV?$complex@M@1@ABV21@@Z" PURGE="0" COMMENT="" />
    <EXPORT ORDINAL="182" NAME="?log10@std@@YA?AV?$complex@N@1@ABV21@@Z" PURGE="0" COMMENT="" />
    <EXPORT ORDINAL="183" NAME="?log10@std@@YA?AV?$complex@O@1@ABV21@@Z" PURGE="0" COMMENT="" />
    <EXPORT ORDINAL="184" NAME="?log@std@@YA?AV?$complex@M@1@ABV21@@Z" PURGE="0" COMMENT="" />
    <EXPORT ORDINAL="185" NAME="?log@std@@YA?AV?$complex@N@1@ABV21@@Z" PURGE="0" COMMENT="" />
    <EXPORT ORDINAL="186" NAME="?log@std@@YA?AV?$complex@O@1@ABV21@@Z" PURGE="0" COMMENT="" />
    <EXPORT ORDINAL="187" NAME="?norm@std@@YAMABV?$complex@M@1@@Z" PURGE="0" COMMENT="" />
    <EXPORT ORDINAL="188" NAME="?norm@std@@YANABV?$complex@N@1@@Z" PURGE="0" COMMENT="" />
    <EXPORT ORDINAL="189" NAME="?norm@std@@YAOABV?$complex@O@1@@Z" PURGE="0" COMMENT="" />
    <EXPORT ORDINAL="190" NAME="?polar@std@@YA?AV?$complex@M@1@ABM0@Z" PURGE="0" COMMENT="" />
    <EXPORT ORDINAL="191" NAME="?polar@std@@YA?AV?$complex@M@1@ABM@Z" PURGE="0" COMMENT="" />
    <EXPORT ORDINAL="192" NAME="?polar@std@@YA?AV?$complex@N@1@ABN0@Z" PURGE="0" COMMENT="" />
    <EXPORT ORDINAL="193" NAME="?polar@std@@YA?AV?$complex@N@1@ABN@Z" PURGE="0" COMMENT="" />
    <EXPORT ORDINAL="194" NAME="?polar@std@@YA?AV?$complex@O@1@ABO0@Z" PURGE="0" COMMENT="" />
    <EXPORT ORDINAL="195" NAME="?polar@std@@YA?AV?$complex@O@1@ABO@Z" PURGE="0" COMMENT="" />
    <EXPORT ORDINAL="196" NAME="?pow@std@@YA?AV?$complex@M@1@ABMABV21@@Z" PURGE="0" COMMENT="" />
    <EXPORT ORDINAL="197" NAME="?pow@std@@YA?AV?$complex@M@1@ABV21@0@Z" PURGE="0" COMMENT="" />
    <EXPORT ORDINAL="198" NAME="?pow@std@@YA?AV?$complex@M@1@ABV21@ABM@Z" PURGE="0" COMMENT="" />
    <EXPORT ORDINAL="199" NAME="?pow@std@@YA?AV?$complex@M@1@ABV21@H@Z" PURGE="0" COMMENT="" />
    <EXPORT ORDINAL="200" NAME="?pow@std@@YA?AV?$complex@N@1@ABNABV21@@Z" PURGE="0" COMMENT="" />
    <EXPORT ORDINAL="201" NAME="?pow@std@@YA?AV?$complex@N@1@ABV21@0@Z" PURGE="0" COMMENT="" />
    <EXPORT ORDINAL="202" NAME="?pow@std@@YA?AV?$complex@N@1@ABV21@ABN@Z" PURGE="0" COMMENT="" />
    <EXPORT ORDINAL="203" NAME="?pow@std@@YA?AV?$complex@N@1@ABV21@H@Z" PURGE="0" COMMENT="" />
    <EXPORT ORDINAL="204" NAME="?pow@std@@YA?AV?$complex@O@1@ABOABV21@@Z" PURGE="0" COMMENT="" />
    <EXPORT ORDINAL="205" NAME="?pow@std@@YA?AV?$complex@O@1@ABV21@0@Z" PURGE="0" COMMENT="" />
    <EXPORT ORDINAL="206" NAME="?pow@std@@YA?AV?$complex@O@1@ABV21@ABO@Z" PURGE="0" COMMENT="" />
    <EXPORT ORDINAL="207" NAME="?pow@std@@YA?AV?$complex@O@1@ABV21@H@Z" PURGE="0" COMMENT="" />
    <EXPORT ORDINAL="208" NAME="?real@std@@YAMABV?$complex@M@1@@Z" PURGE="0" COMMENT="" />
    <EXPORT ORDINAL="209" NAME="?real@std@@YANABV?$complex@N@1@@Z" PURGE="0" COMMENT="" />
    <EXPORT ORDINAL="210" NAME="?real@std@@YAOABV?$complex@O@1@@Z" PURGE="0" COMMENT="" />
    <EXPORT ORDINAL="211" NAME="?sin@std@@YA?AV?$complex@M@1@ABV21@@Z" PURGE="0" COMMENT="" />
    <EXPORT ORDINAL="212" NAME="?sin@std@@YA?AV?$complex@N@1@ABV21@@Z" PURGE="0" COMMENT="" />
    <EXPORT ORDINAL="213" NAME="?sin@std@@YA?AV?$complex@O@1@ABV21@@Z" PURGE="0" COMMENT="" />
    <EXPORT ORDINAL="214" NAME="?sinh@std@@YA?AV?$complex@M@1@ABV21@@Z" PURGE="0" COMMENT="" />
    <EXPORT ORDINAL="215" NAME="?sinh@std@@YA?AV?$complex@N@1@ABV21@@Z" PURGE="0" COMMENT="" />
    <EXPORT ORDINAL="216" NAME="?sinh@std@@YA?AV?$complex@O@1@ABV21@@Z" PURGE="0" COMMENT="" />
    <EXPORT ORDINAL="217" NAME="?sqrt@std@@YA?AV?$complex@M@1@ABV21@@Z" PURGE="0" COMMENT="" />
    <EXPORT ORDINAL="218" NAME="?sqrt@std@@YA?AV?$complex@N@1@ABV21@@Z" PURGE="0" COMMENT="" />
    <EXPORT ORDINAL="219" NAME="?sqrt@std@@YA?AV?$complex@O@1@ABV21@@Z" PURGE="0" COMMENT="" />
    <EXPORT ORDINAL="220" NAME="??0?$_Complex_base@M@std@@QAE@ABM0@Z" PURGE="8" COMMENT="" />
    <EXPORT ORDINAL="221" NAME="??0?$_Complex_base@N@std@@QAE@ABN0@Z" PURGE="8" COMMENT="" />
    <EXPORT ORDINAL="222" NAME="??0?$_Complex_base@O@std@@QAE@ABO0@Z" PURGE="8" COMMENT="" />
    <EXPORT ORDINAL="223" NAME="??0?$_Mpunct@D@std@@QAE@ABV_Locinfo@1@I_N@Z" PURGE="12" COMMENT="" />
    <EXPORT ORDINAL="224" NAME="??0?$_Mpunct@D@std@@QAE@I_N@Z" PURGE="8" COMMENT="" />
    <EXPORT ORDINAL="225" NAME="??0?$_Mpunct@G@std@@QAE@ABV_Locinfo@1@I_N@Z" PURGE="12" COMMENT="" />
    <EXPORT ORDINAL="226" NAME="??0?$_Mpunct@G@std@@QAE@I_N@Z" PURGE="8" COMMENT="" />
    <EXPORT ORDINAL="227" NAME="??0?$basic_filebuf@DU?$char_traits@D@std@@@std@@QAE@ABV01@@Z" PURGE="4" COMMENT="" />
    <EXPORT ORDINAL="228" NAME="??0?$basic_filebuf@DU?$char_traits@D@std@@@std@@QAE@PAU_iobuf@@@Z" PURGE="4" COMMENT="" />
    <EXPORT ORDINAL="229" NAME="??0?$basic_filebuf@DU?$char_traits@D@std@@@std@@QAE@W4_Uninitialized@1@@Z" PURGE="4" COMMENT="" />
    <EXPORT ORDINAL="230" NAME="??0?$basic_filebuf@GU?$char_traits@G@std@@@std@@QAE@ABV01@@Z" PURGE="4" COMMENT="" />
    <EXPORT ORDINAL="231" NAME="??0?$basic_filebuf@GU?$char_traits@G@std@@@std@@QAE@PAU_iobuf@@@Z" PURGE="4" COMMENT="" />
    <EXPORT ORDINAL="232" NAME="??0?$basic_filebuf@GU?$char_traits@G@std@@@std@@QAE@W4_Uninitialized@1@@Z" PURGE="4" COMMENT="" />
    <EXPORT ORDINAL="233" NAME="??0?$basic_fstream@DU?$char_traits@D@std@@@std@@QAE@ABV01@@Z" PURGE="8" COMMENT="" />
    <EXPORT ORDINAL="234" NAME="??0?$basic_fstream@DU?$char_traits@D@std@@@std@@QAE@PBDH@Z" PURGE="12" COMMENT="" />
    <EXPORT ORDINAL="235" NAME="??0?$basic_fstream@DU?$char_traits@D@std@@@std@@QAE@XZ" PURGE="4" COMMENT="" />
    <EXPORT ORDINAL="236" NAME="??0?$basic_fstream@GU?$char_traits@G@std@@@std@@QAE@ABV01@@Z" PURGE="8" COMMENT="" />
    <EXPORT ORDINAL="237" NAME="??0?$basic_fstream@GU?$char_traits@G@std@@@std@@QAE@PBDH@Z" PURGE="12" COMMENT="" />
    <EXPORT ORDINAL="238" NAME="??0?$basic_fstream@GU?$char_traits@G@std@@@std@@QAE@XZ" PURGE="4" COMMENT="" />
    <EXPORT ORDINAL="239" NAME="??0?$basic_ifstream@DU?$char_traits@D@std@@@std@@QAE@ABV01@@Z" PURGE="8" COMMENT="" />
    <EXPORT ORDINAL="240" NAME="??0?$basic_ifstream@DU?$char_traits@D@std@@@std@@QAE@PBDH@Z" PURGE="12" COMMENT="" />
    <EXPORT ORDINAL="241" NAME="??0?$basic_ifstream@DU?$char_traits@D@std@@@std@@QAE@XZ" PURGE="4" COMMENT="" />
    <EXPORT ORDINAL="242" NAME="??0?$basic_ifstream@GU?$char_traits@G@std@@@std@@QAE@ABV01@@Z" PURGE="8" COMMENT="" />
    <EXPORT ORDINAL="243" NAME="??0?$basic_ifstream@GU?$char_traits@G@std@@@std@@QAE@PBDH@Z" PURGE="12" COMMENT="" />
    <EXPORT ORDINAL="244" NAME="??0?$basic_ifstream@GU?$char_traits@G@std@@@std@@QAE@XZ" PURGE="4" COMMENT="" />
    <EXPORT ORDINAL="245" NAME="??0?$basic_ios@DU?$char_traits@D@std@@@std@@IAE@XZ" PURGE="0" COMMENT="" />
    <EXPORT ORDINAL="246" NAME="??0?$basic_ios@DU?$char_traits@D@std@@@std@@QAE@ABV01@@Z" PURGE="4" COMMENT="" />
    <EXPORT ORDINAL="247" NAME="??0?$basic_ios@DU?$char_traits@D@std@@@std@@QAE@PAV?$basic_streambuf@DU?$char_traits@D@std@@@1@@Z" PURGE="4" COMMENT="" />
    <EXPORT ORDINAL="248" NAME="??0?$basic_ios@GU?$char_traits@G@std@@@std@@IAE@XZ" PURGE="0" COMMENT="" />
    <EXPORT ORDINAL="249" NAME="??0?$basic_ios@GU?$char_traits@G@std@@@std@@QAE@ABV01@@Z" PURGE="4" COMMENT="" />
    <EXPORT ORDINAL="250" NAME="??0?$basic_ios@GU?$char_traits@G@std@@@std@@QAE@PAV?$basic_streambuf@GU?$char_traits@G@std@@@1@@Z" PURGE="4" COMMENT="" />
    <EXPORT ORDINAL="251" NAME="??0?$basic_iostream@DU?$char_traits@D@std@@@std@@QAE@ABV01@@Z" PURGE="8" COMMENT="" />
    <EXPORT ORDINAL="252" NAME="??0?$basic_iostream@DU?$char_traits@D@std@@@std@@QAE@PAV?$basic_streambuf@DU?$char_traits@D@std@@@1@@Z" PURGE="8" COMMENT="" />
    <EXPORT ORDINAL="253" NAME="??0?$basic_iostream@GU?$char_traits@G@std@@@std@@QAE@ABV01@@Z" PURGE="8" COMMENT="" />
    <EXPORT ORDINAL="254" NAME="??0?$basic_iostream@GU?$char_traits@G@std@@@std@@QAE@PAV?$basic_streambuf@GU?$char_traits@G@std@@@1@@Z" PURGE="8" COMMENT="" />
    <EXPORT ORDINAL="255" NAME="??0?$basic_istream@DU?$char_traits@D@std@@@std@@QAE@ABV01@@Z" PURGE="8" COMMENT="" />
    <EXPORT ORDINAL="256" NAME="??0?$basic_istream@DU?$char_traits@D@std@@@std@@QAE@PAV?$basic_streambuf@DU?$char_traits@D@std@@@1@_N@Z" PURGE="12" COMMENT="" />
    <EXPORT ORDINAL="257" NAME="??0?$basic_istream@DU?$char_traits@D@std@@@std@@QAE@W4_Uninitialized@1@@Z" PURGE="8" COMMENT="" />
    <EXPORT ORDINAL="258" NAME="??0?$basic_istream@GU?$char_traits@G@std@@@std@@QAE@ABV01@@Z" PURGE="8" COMMENT="" />
    <EXPORT ORDINAL="259" NAME="??0?$basic_istream@GU?$char_traits@G@std@@@std@@QAE@PAV?$basic_streambuf@GU?$char_traits@G@std@@@1@_N@Z" PURGE="12" COMMENT="" />
    <EXPORT ORDINAL="260" NAME="??0?$basic_istream@GU?$char_traits@G@std@@@std@@QAE@W4_Uninitialized@1@@Z" PURGE="8" COMMENT="" />
    <EXPORT ORDINAL="261" NAME="??0?$basic_istringstream@DU?$char_traits@D@std@@V?$allocator@D@2@@std@@QAE@ABV01@@Z" PURGE="8" COMMENT="" />
    <EXPORT ORDINAL="262" NAME="??0?$basic_istringstream@DU?$char_traits@D@std@@V?$allocator@D@2@@std@@QAE@ABV?$basic_string@DU?$char_traits@D@std@@V?$allocator@D@2@@1@H@Z" PURGE="12" COMMENT="" />
    <EXPORT ORDINAL="263" NAME="??0?$basic_istringstream@DU?$char_traits@D@std@@V?$allocator@D@2@@std@@QAE@H@Z" PURGE="8" COMMENT="" />
    <EXPORT ORDINAL="264" NAME="??0?$basic_istringstream@GU?$char_traits@G@std@@V?$allocator@G@2@@std@@QAE@ABV01@@Z" PURGE="8" COMMENT="" />
    <EXPORT ORDINAL="265" NAME="??0?$basic_istringstream@GU?$char_traits@G@std@@V?$allocator@G@2@@std@@QAE@ABV?$basic_string@GU?$char_traits@G@std@@V?$allocator@G@2@@1@H@Z" PURGE="12" COMMENT="" />
    <EXPORT ORDINAL="266" NAME="??0?$basic_istringstream@GU?$char_traits@G@std@@V?$allocator@G@2@@std@@QAE@H@Z" PURGE="8" COMMENT="" />
    <EXPORT ORDINAL="267" NAME="??0?$basic_ofstream@DU?$char_traits@D@std@@@std@@QAE@ABV01@@Z" PURGE="8" COMMENT="" />
    <EXPORT ORDINAL="268" NAME="??0?$basic_ofstream@DU?$char_traits@D@std@@@std@@QAE@PBDH@Z" PURGE="12" COMMENT="" />
    <EXPORT ORDINAL="269" NAME="??0?$basic_ofstream@DU?$char_traits@D@std@@@std@@QAE@XZ" PURGE="4" COMMENT="" />
    <EXPORT ORDINAL="270" NAME="??0?$basic_ofstream@GU?$char_traits@G@std@@@std@@QAE@ABV01@@Z" PURGE="8" COMMENT="" />
    <EXPORT ORDINAL="271" NAME="??0?$basic_ofstream@GU?$char_traits@G@std@@@std@@QAE@PBDH@Z" PURGE="12" COMMENT="" />
    <EXPORT ORDINAL="272" NAME="??0?$basic_ofstream@GU?$char_traits@G@std@@@std@@QAE@XZ" PURGE="4" COMMENT="" />
    <EXPORT ORDINAL="273" NAME="??0?$basic_ostream@DU?$char_traits@D@std@@@std@@QAE@ABV01@@Z" PURGE="8" COMMENT="" />
    <EXPORT ORDINAL="274" NAME="??0?$basic_ostream@DU?$char_traits@D@std@@@std@@QAE@PAV?$basic_streambuf@DU?$char_traits@D@std@@@1@_N1@Z" PURGE="16" COMMENT="" />
    <EXPORT ORDINAL="275" NAME="??0?$basic_ostream@DU?$char_traits@D@std@@@std@@QAE@W4_Uninitialized@1@@Z" PURGE="8" COMMENT="" />
    <EXPORT ORDINAL="276" NAME="??0?$basic_ostream@GU?$char_traits@G@std@@@std@@QAE@ABV01@@Z" PURGE="8" COMMENT="" />
    <EXPORT ORDINAL="277" NAME="??0?$basic_ostream@GU?$char_traits@G@std@@@std@@QAE@PAV?$basic_streambuf@GU?$char_traits@G@std@@@1@_N1@Z" PURGE="16" COMMENT="" />
    <EXPORT ORDINAL="278" NAME="??0?$basic_ostream@GU?$char_traits@G@std@@@std@@QAE@W4_Uninitialized@1@@Z" PURGE="8" COMMENT="" />
    <EXPORT ORDINAL="279" NAME="??0?$basic_ostringstream@DU?$char_traits@D@std@@V?$allocator@D@2@@std@@QAE@ABV01@@Z" PURGE="8" COMMENT="" />
    <EXPORT ORDINAL="280" NAME="??0?$basic_ostringstream@DU?$char_traits@D@std@@V?$allocator@D@2@@std@@QAE@ABV?$basic_string@DU?$char_traits@D@std@@V?$allocator@D@2@@1@H@Z" PURGE="12" COMMENT="" />
    <EXPORT ORDINAL="281" NAME="??0?$basic_ostringstream@DU?$char_traits@D@std@@V?$allocator@D@2@@std@@QAE@H@Z" PURGE="8" COMMENT="" />
    <EXPORT ORDINAL="282" NAME="??0?$basic_ostringstream@GU?$char_traits@G@std@@V?$allocator@G@2@@std@@QAE@ABV01@@Z" PURGE="8" COMMENT="" />
    <EXPORT ORDINAL="283" NAME="??0?$basic_ostringstream@GU?$char_traits@G@std@@V?$allocator@G@2@@std@@QAE@ABV?$basic_string@GU?$char_traits@G@std@@V?$allocator@G@2@@1@H@Z" PURGE="12" COMMENT="" />
    <EXPORT ORDINAL="284" NAME="??0?$basic_ostringstream@GU?$char_traits@G@std@@V?$allocator@G@2@@std@@QAE@H@Z" PURGE="8" COMMENT="" />
    <EXPORT ORDINAL="285" NAME="??0?$basic_streambuf@DU?$char_traits@D@std@@@std@@IAE@W4_Uninitialized@1@@Z" PURGE="4" COMMENT="" />
    <EXPORT ORDINAL="286" NAME="??0?$basic_streambuf@DU?$char_traits@D@std@@@std@@IAE@XZ" PURGE="0" COMMENT="" />
    <EXPORT ORDINAL="287" NAME="??0?$basic_streambuf@DU?$char_traits@D@std@@@std@@QAE@ABV01@@Z" PURGE="4" COMMENT="" />
    <EXPORT ORDINAL="288" NAME="??0?$basic_streambuf@GU?$char_traits@G@std@@@std@@IAE@W4_Uninitialized@1@@Z" PURGE="4" COMMENT="" />
    <EXPORT ORDINAL="289" NAME="??0?$basic_streambuf@GU?$char_traits@G@std@@@std@@IAE@XZ" PURGE="0" COMMENT="" />
    <EXPORT ORDINAL="290" NAME="??0?$basic_streambuf@GU?$char_traits@G@std@@@std@@QAE@ABV01@@Z" PURGE="4" COMMENT="" />
    <EXPORT ORDINAL="291" NAME="??0?$basic_string@DU?$char_traits@D@std@@V?$allocator@D@2@@std@@QAE@ABV01@@Z" PURGE="4" COMMENT="" />
    <EXPORT ORDINAL="292" NAME="??0?$basic_string@DU?$char_traits@D@std@@V?$allocator@D@2@@std@@QAE@ABV01@IIABV?$allocator@D@1@@Z" PURGE="16" COMMENT="" />
    <EXPORT ORDINAL="293" NAME="??0?$basic_string@DU?$char_traits@D@std@@V?$allocator@D@2@@std@@QAE@ABV?$allocator@D@1@@Z" PURGE="4" COMMENT="" />
    <EXPORT ORDINAL="294" NAME="??0?$basic_string@DU?$char_traits@D@std@@V?$allocator@D@2@@std@@QAE@IDABV?$allocator@D@1@@Z" PURGE="12" COMMENT="" />
    <EXPORT ORDINAL="295" NAME="??0?$basic_string@DU?$char_traits@D@std@@V?$allocator@D@2@@std@@QAE@PBD0ABV?$allocator@D@1@@Z" PURGE="12" COMMENT="" />
    <EXPORT ORDINAL="296" NAME="??0?$basic_string@DU?$char_traits@D@std@@V?$allocator@D@2@@std@@QAE@PBDABV?$allocator@D@1@@Z" PURGE="8" COMMENT="" />
    <EXPORT ORDINAL="297" NAME="??0?$basic_string@DU?$char_traits@D@std@@V?$allocator@D@2@@std@@QAE@PBDIABV?$allocator@D@1@@Z" PURGE="12" COMMENT="" />
    <EXPORT ORDINAL="298" NAME="??0?$basic_string@GU?$char_traits@G@std@@V?$allocator@G@2@@std@@QAE@ABV01@@Z" PURGE="4" COMMENT="" />
    <EXPORT ORDINAL="299" NAME="??0?$basic_string@GU?$char_traits@G@std@@V?$allocator@G@2@@std@@QAE@ABV01@IIABV?$allocator@G@1@@Z" PURGE="16" COMMENT="" />
    <EXPORT ORDINAL="300" NAME="??0?$basic_string@GU?$char_traits@G@std@@V?$allocator@G@2@@std@@QAE@ABV?$allocator@G@1@@Z" PURGE="4" COMMENT="" />
    <EXPORT ORDINAL="301" NAME="??0?$basic_string@GU?$char_traits@G@std@@V?$allocator@G@2@@std@@QAE@IGABV?$allocator@G@1@@Z" PURGE="12" COMMENT="" />
    <EXPORT ORDINAL="302" NAME="??0?$basic_string@GU?$char_traits@G@std@@V?$allocator@G@2@@std@@QAE@PBG0ABV?$allocator@G@1@@Z" PURGE="12" COMMENT="" />
    <EXPORT ORDINAL="303" NAME="??0?$basic_string@GU?$char_traits@G@std@@V?$allocator@G@2@@std@@QAE@PBGABV?$allocator@G@1@@Z" PURGE="8" COMMENT="" />
    <EXPORT ORDINAL="304" NAME="??0?$basic_string@GU?$char_traits@G@std@@V?$allocator@G@2@@std@@QAE@PBGIABV?$allocator@G@1@@Z" PURGE="12" COMMENT="" />
    <EXPORT ORDINAL="305" NAME="??0?$basic_stringbuf@DU?$char_traits@D@std@@V?$allocator@D@2@@std@@QAE@ABV01@@Z" PURGE="4" COMMENT="" />
    <EXPORT ORDINAL="306" NAME="??0?$basic_stringbuf@DU?$char_traits@D@std@@V?$allocator@D@2@@std@@QAE@ABV?$basic_string@DU?$char_traits@D@std@@V?$allocator@D@2@@1@H@Z" PURGE="8" COMMENT="" />
    <EXPORT ORDINAL="307" NAME="??0?$basic_stringbuf@DU?$char_traits@D@std@@V?$allocator@D@2@@std@@QAE@H@Z" PURGE="4" COMMENT="" />
    <EXPORT ORDINAL="308" NAME="??0?$basic_stringbuf@GU?$char_traits@G@std@@V?$allocator@G@2@@std@@QAE@ABV01@@Z" PURGE="4" COMMENT="" />
    <EXPORT ORDINAL="309" NAME="??0?$basic_stringbuf@GU?$char_traits@G@std@@V?$allocator@G@2@@std@@QAE@ABV?$basic_string@GU?$char_traits@G@std@@V?$allocator@G@2@@1@H@Z" PURGE="8" COMMENT="" />
    <EXPORT ORDINAL="310" NAME="??0?$basic_stringbuf@GU?$char_traits@G@std@@V?$allocator@G@2@@std@@QAE@H@Z" PURGE="4" COMMENT="" />
    <EXPORT ORDINAL="311" NAME="??0?$basic_stringstream@DU?$char_traits@D@std@@V?$allocator@D@2@@std@@QAE@ABV01@@Z" PURGE="8" COMMENT="" />
    <EXPORT ORDINAL="312" NAME="??0?$basic_stringstream@DU?$char_traits@D@std@@V?$allocator@D@2@@std@@QAE@ABV?$basic_string@DU?$char_traits@D@std@@V?$allocator@D@2@@1@H@Z" PURGE="12" COMMENT="" />
    <EXPORT ORDINAL="313" NAME="??0?$basic_stringstream@DU?$char_traits@D@std@@V?$allocator@D@2@@std@@QAE@H@Z" PURGE="8" COMMENT="" />
    <EXPORT ORDINAL="314" NAME="??0?$basic_stringstream@GU?$char_traits@G@std@@V?$allocator@G@2@@std@@QAE@ABV01@@Z" PURGE="8" COMMENT="" />
    <EXPORT ORDINAL="315" NAME="??0?$basic_stringstream@GU?$char_traits@G@std@@V?$allocator@G@2@@std@@QAE@ABV?$basic_string@GU?$char_traits@G@std@@V?$allocator@G@2@@1@H@Z" PURGE="12" COMMENT="" />
    <EXPORT ORDINAL="316" NAME="??0?$basic_stringstream@GU?$char_traits@G@std@@V?$allocator@G@2@@std@@QAE@H@Z" PURGE="8" COMMENT="" />
    <EXPORT ORDINAL="317" NAME="??0?$codecvt@DDH@std@@QAE@ABV_Locinfo@1@I@Z" PURGE="8" COMMENT="" />
    <EXPORT ORDINAL="318" NAME="??0?$codecvt@DDH@std@@QAE@I@Z" PURGE="4" COMMENT="" />
    <EXPORT ORDINAL="319" NAME="??0?$codecvt@GDH@std@@QAE@ABV_Locinfo@1@I@Z" PURGE="8" COMMENT="" />
    <EXPORT ORDINAL="320" NAME="??0?$codecvt@GDH@std@@QAE@I@Z" PURGE="4" COMMENT="" />
    <EXPORT ORDINAL="321" NAME="??0?$collate@D@std@@QAE@ABV_Locinfo@1@I@Z" PURGE="8" COMMENT="" />
    <EXPORT ORDINAL="322" NAME="??0?$collate@D@std@@QAE@I@Z" PURGE="4" COMMENT="" />
    <EXPORT ORDINAL="323" NAME="??0?$collate@G@std@@QAE@ABV_Locinfo@1@I@Z" PURGE="8" COMMENT="" />
    <EXPORT ORDINAL="324" NAME="??0?$collate@G@std@@QAE@I@Z" PURGE="4" COMMENT="" />
    <EXPORT ORDINAL="325" NAME="??0?$complex@M@std@@QAE@ABM0@Z" PURGE="8" COMMENT="" />
    <EXPORT ORDINAL="326" NAME="??0?$complex@M@std@@QAE@ABV?$complex@N@1@@Z" PURGE="4" COMMENT="" />
    <EXPORT ORDINAL="327" NAME="??0?$complex@M@std@@QAE@ABV?$complex@O@1@@Z" PURGE="4" COMMENT="" />
    <EXPORT ORDINAL="328" NAME="??0?$complex@N@std@@QAE@ABN0@Z" PURGE="8" COMMENT="" />
    <EXPORT ORDINAL="329" NAME="??0?$complex@N@std@@QAE@ABV?$complex@M@1@@Z" PURGE="4" COMMENT="" />
    <EXPORT ORDINAL="330" NAME="??0?$complex@N@std@@QAE@ABV?$complex@O@1@@Z" PURGE="4" COMMENT="" />
    <EXPORT ORDINAL="331" NAME="??0?$complex@O@std@@QAE@ABO0@Z" PURGE="8" COMMENT="" />
    <EXPORT ORDINAL="332" NAME="??0?$complex@O@std@@QAE@ABV?$complex@M@1@@Z" PURGE="4" COMMENT="" />
    <EXPORT ORDINAL="333" NAME="??0?$complex@O@std@@QAE@ABV?$complex@N@1@@Z" PURGE="4" COMMENT="" />
    <EXPORT ORDINAL="334" NAME="??0?$ctype@D@std@@QAE@ABV_Locinfo@1@I@Z" PURGE="8" COMMENT="" />
    <EXPORT ORDINAL="335" NAME="??0?$ctype@D@std@@QAE@PBF_NI@Z" PURGE="12" COMMENT="" />
    <EXPORT ORDINAL="336" NAME="??0?$ctype@G@std@@QAE@ABV_Locinfo@1@I@Z" PURGE="8" COMMENT="" />
    <EXPORT ORDINAL="337" NAME="??0?$ctype@G@std@@QAE@I@Z" PURGE="4" COMMENT="" />
    <EXPORT ORDINAL="338" NAME="??0?$messages@D@std@@QAE@ABV_Locinfo@1@I@Z" PURGE="8" COMMENT="" />
    <EXPORT ORDINAL="339" NAME="??0?$messages@D@std@@QAE@I@Z" PURGE="4" COMMENT="" />
    <EXPORT ORDINAL="340" NAME="??0?$messages@G@std@@QAE@ABV_Locinfo@1@I@Z" PURGE="8" COMMENT="" />
    <EXPORT ORDINAL="341" NAME="??0?$messages@G@std@@QAE@I@Z" PURGE="4" COMMENT="" />
    <EXPORT ORDINAL="342" NAME="??0?$money_get@DV?$istreambuf_iterator@DU?$char_traits@D@std@@@std@@@std@@QAE@ABV_Locinfo@1@I@Z" PURGE="8" COMMENT="" />
    <EXPORT ORDINAL="343" NAME="??0?$money_get@DV?$istreambuf_iterator@DU?$char_traits@D@std@@@std@@@std@@QAE@I@Z" PURGE="4" COMMENT="" />
    <EXPORT ORDINAL="344" NAME="??0?$money_get@GV?$istreambuf_iterator@GU?$char_traits@G@std@@@std@@@std@@QAE@ABV_Locinfo@1@I@Z" PURGE="8" COMMENT="" />
    <EXPORT ORDINAL="345" NAME="??0?$money_get@GV?$istreambuf_iterator@GU?$char_traits@G@std@@@std@@@std@@QAE@I@Z" PURGE="4" COMMENT="" />
    <EXPORT ORDINAL="346" NAME="??0?$money_put@DV?$ostreambuf_iterator@DU?$char_traits@D@std@@@std@@@std@@QAE@ABV_Locinfo@1@I@Z" PURGE="8" COMMENT="" />
    <EXPORT ORDINAL="347" NAME="??0?$money_put@DV?$ostreambuf_iterator@DU?$char_traits@D@std@@@std@@@std@@QAE@I@Z" PURGE="4" COMMENT="" />
    <EXPORT ORDINAL="348" NAME="??0?$money_put@GV?$ostreambuf_iterator@GU?$char_traits@G@std@@@std@@@std@@QAE@ABV_Locinfo@1@I@Z" PURGE="8" COMMENT="" />
    <EXPORT ORDINAL="349" NAME="??0?$money_put@GV?$ostreambuf_iterator@GU?$char_traits@G@std@@@std@@@std@@QAE@I@Z" PURGE="4" COMMENT="" />
    <EXPORT ORDINAL="350" NAME="??0?$moneypunct@D$00@std@@QAE@ABV_Locinfo@1@I@Z" PURGE="8" COMMENT="" />
    <EXPORT ORDINAL="351" NAME="??0?$moneypunct@D$00@std@@QAE@I@Z" PURGE="4" COMMENT="" />
    <EXPORT ORDINAL="352" NAME="??0?$moneypunct@D$0A@@std@@QAE@ABV_Locinfo@1@I@Z" PURGE="8" COMMENT="" />
    <EXPORT ORDINAL="353" NAME="??0?$moneypunct@D$0A@@std@@QAE@I@Z" PURGE="4" COMMENT="" />
    <EXPORT ORDINAL="354" NAME="??0?$moneypunct@G$00@std@@QAE@ABV_Locinfo@1@I@Z" PURGE="8" COMMENT="" />
    <EXPORT ORDINAL="355" NAME="??0?$moneypunct@G$00@std@@QAE@I@Z" PURGE="4" COMMENT="" />
    <EXPORT ORDINAL="356" NAME="??0?$moneypunct@G$0A@@std@@QAE@ABV_Locinfo@1@I@Z" PURGE="8" COMMENT="" />
    <EXPORT ORDINAL="357" NAME="??0?$moneypunct@G$0A@@std@@QAE@I@Z" PURGE="4" COMMENT="" />
    <EXPORT ORDINAL="358" NAME="??0?$num_get@DV?$istreambuf_iterator@DU?$char_traits@D@std@@@std@@@std@@QAE@ABV_Locinfo@1@I@Z" PURGE="8" COMMENT="" />
    <EXPORT ORDINAL="359" NAME="??0?$num_get@DV?$istreambuf_iterator@DU?$char_traits@D@std@@@std@@@std@@QAE@I@Z" PURGE="4" COMMENT="" />
    <EXPORT ORDINAL="360" NAME="??0?$num_get@GV?$istreambuf_iterator@GU?$char_traits@G@std@@@std@@@std@@QAE@ABV_Locinfo@1@I@Z" PURGE="8" COMMENT="" />
    <EXPORT ORDINAL="361" NAME="??0?$num_get@GV?$istreambuf_iterator@GU?$char_traits@G@std@@@std@@@std@@QAE@I@Z" PURGE="4" COMMENT="" />
    <EXPORT ORDINAL="362" NAME="??0?$num_put@DV?$ostreambuf_iterator@DU?$char_traits@D@std@@@std@@@std@@QAE@ABV_Locinfo@1@I@Z" PURGE="8" COMMENT="" />
    <EXPORT ORDINAL="363" NAME="??0?$num_put@DV?$ostreambuf_iterator@DU?$char_traits@D@std@@@std@@@std@@QAE@I@Z" PURGE="4" COMMENT="" />
    <EXPORT ORDINAL="364" NAME="??0?$num_put@GV?$ostreambuf_iterator@GU?$char_traits@G@std@@@std@@@std@@QAE@ABV_Locinfo@1@I@Z" PURGE="8" COMMENT="" />
    <EXPORT ORDINAL="365" NAME="??0?$num_put@GV?$ostreambuf_iterator@GU?$char_traits@G@std@@@std@@@std@@QAE@I@Z" PURGE="4" COMMENT="" />
    <EXPORT ORDINAL="366" NAME="??0?$numpunct@D@std@@QAE@ABV_Locinfo@1@I@Z" PURGE="8" COMMENT="" />
    <EXPORT ORDINAL="367" NAME="??0?$numpunct@D@std@@QAE@I@Z" PURGE="4" COMMENT="" />
    <EXPORT ORDINAL="368" NAME="??0?$numpunct@G@std@@QAE@ABV_Locinfo@1@I@Z" PURGE="8" COMMENT="" />
    <EXPORT ORDINAL="369" NAME="??0?$numpunct@G@std@@QAE@I@Z" PURGE="4" COMMENT="" />
    <EXPORT ORDINAL="370" NAME="??0?$time_get@DV?$istreambuf_iterator@DU?$char_traits@D@std@@@std@@@std@@QAE@ABV_Locinfo@1@I@Z" PURGE="8" COMMENT="" />
    <EXPORT ORDINAL="371" NAME="??0?$time_get@DV?$istreambuf_iterator@DU?$char_traits@D@std@@@std@@@std@@QAE@I@Z" PURGE="4" COMMENT="" />
    <EXPORT ORDINAL="372" NAME="??0?$time_get@GV?$istreambuf_iterator@GU?$char_traits@G@std@@@std@@@std@@QAE@ABV_Locinfo@1@I@Z" PURGE="8" COMMENT="" />
    <EXPORT ORDINAL="373" NAME="??0?$time_get@GV?$istreambuf_iterator@GU?$char_traits@G@std@@@std@@@std@@QAE@I@Z" PURGE="4" COMMENT="" />
    <EXPORT ORDINAL="374" NAME="??0?$time_put@DV?$ostreambuf_iterator@DU?$char_traits@D@std@@@std@@@std@@QAE@ABV_Locinfo@1@I@Z" PURGE="8" COMMENT="" />
    <EXPORT ORDINAL="375" NAME="??0?$time_put@DV?$ostreambuf_iterator@DU?$char_traits@D@std@@@std@@@std@@QAE@I@Z" PURGE="4" COMMENT="" />
    <EXPORT ORDINAL="376" NAME="??0?$time_put@GV?$ostreambuf_iterator@GU?$char_traits@G@std@@@std@@@std@@QAE@ABV_Locinfo@1@I@Z" PURGE="8" COMMENT="" />
    <EXPORT ORDINAL="377" NAME="??0?$time_put@GV?$ostreambuf_iterator@GU?$char_traits@G@std@@@std@@@std@@QAE@I@Z" PURGE="4" COMMENT="" />
    <EXPORT ORDINAL="378" NAME="??0Init@ios_base@std@@QAE@XZ" PURGE="0" COMMENT="" />
    <EXPORT ORDINAL="379" NAME="??0_Locinfo@std@@QAE@ABV01@@Z" PURGE="4" COMMENT="" />
    <EXPORT ORDINAL="380" NAME="??0_Locinfo@std@@QAE@HPBD@Z" PURGE="8" COMMENT="" />
    <EXPORT ORDINAL="381" NAME="??0_Locinfo@std@@QAE@PBD@Z" PURGE="4" COMMENT="" />
    <EXPORT ORDINAL="382" NAME="??0_Lockit@std@@QAE@XZ" PURGE="0" COMMENT="" />
    <EXPORT ORDINAL="383" NAME="??0_Timevec@std@@QAE@ABV01@@Z" PURGE="4" COMMENT="" />
    <EXPORT ORDINAL="384" NAME="??0_Timevec@std@@QAE@PAX@Z" PURGE="4" COMMENT="" />
    <EXPORT ORDINAL="385" NAME="??0_Winit@std@@QAE@XZ" PURGE="0" COMMENT="" />
    <EXPORT ORDINAL="386" NAME="??0__non_rtti_object@std@@QAE@$$QAV01@@Z" PURGE="4" COMMENT="" />
    <EXPORT ORDINAL="387" NAME="??0__non_rtti_object@std@@QAE@ABV01@@Z" PURGE="4" COMMENT="" />
    <EXPORT ORDINAL="388" NAME="??0__non_rtti_object@std@@QAE@PBD@Z" PURGE="4" COMMENT="" />
    <EXPORT ORDINAL="389" NAME="??0bad_alloc@std@@QAE@ABV01@@Z" PURGE="4" COMMENT="" />
    <EXPORT ORDINAL="390" NAME="??0bad_alloc@std@@QAE@PBD@Z" PURGE="4" COMMENT="" />
    <EXPORT ORDINAL="391" NAME="??0bad_alloc@std@@QAE@XZ" PURGE="0" COMMENT="" />
    <EXPORT ORDINAL="392" NAME="??0bad_cast@std@@QAE@ABV01@@Z" PURGE="4" COMMENT="" />
    <EXPORT ORDINAL="393" NAME="??0bad_cast@std@@QAE@PBD@Z" PURGE="4" COMMENT="" />
    <EXPORT ORDINAL="394" NAME="??0bad_exception@std@@QAE@ABV01@@Z" PURGE="4" COMMENT="" />
    <EXPORT ORDINAL="395" NAME="??0bad_exception@std@@QAE@PBD@Z" PURGE="4" COMMENT="" />
    <EXPORT ORDINAL="396" NAME="??0bad_typeid@std@@QAE@ABV01@@Z" PURGE="4" COMMENT="" />
    <EXPORT ORDINAL="397" NAME="??0bad_typeid@std@@QAE@PBD@Z" PURGE="4" COMMENT="" />
    <EXPORT ORDINAL="398" NAME="??0codecvt_base@std@@QAE@I@Z" PURGE="4" COMMENT="" />
    <EXPORT ORDINAL="399" NAME="??0ctype_base@std@@QAE@I@Z" PURGE="4" COMMENT="" />
    <EXPORT ORDINAL="400" NAME="??0domain_error@std@@QAE@ABV01@@Z" PURGE="4" COMMENT="" />
    <EXPORT ORDINAL="401" NAME="??0domain_error@std@@QAE@ABV?$basic_string@DU?$char_traits@D@std@@V?$allocator@D@2@@1@@Z" PURGE="4" COMMENT="" />
    <EXPORT ORDINAL="402" NAME="??0facet@locale@std@@IAE@I@Z" PURGE="4" COMMENT="" />
    <EXPORT ORDINAL="403" NAME="??0ios_base@std@@IAE@XZ" PURGE="0" COMMENT="" />
    <EXPORT ORDINAL="404" NAME="??0ios_base@std@@QAE@ABV01@@Z" PURGE="4" COMMENT="" />
    <EXPORT ORDINAL="405" NAME="??0length_error@std@@QAE@ABV01@@Z" PURGE="4" COMMENT="" />
    <EXPORT ORDINAL="406" NAME="??0length_error@std@@QAE@ABV?$basic_string@DU?$char_traits@D@std@@V?$allocator@D@2@@1@@Z" PURGE="4" COMMENT="" />
    <EXPORT ORDINAL="407" NAME="??0locale@std@@AAE@PAV_Locimp@01@@Z" PURGE="4" COMMENT="" />
    <EXPORT ORDINAL="408" NAME="??0locale@std@@QAE@ABV01@0H@Z" PURGE="12" COMMENT="" />
    <EXPORT ORDINAL="409" NAME="??0locale@std@@QAE@ABV01@@Z" PURGE="4" COMMENT="" />
    <EXPORT ORDINAL="410" NAME="??0locale@std@@QAE@ABV01@PBDH@Z" PURGE="12" COMMENT="" />
    <EXPORT ORDINAL="411" NAME="??0locale@std@@QAE@PBDH@Z" PURGE="8" COMMENT="" />
    <EXPORT ORDINAL="412" NAME="??0locale@std@@QAE@W4_Uninitialized@1@@Z" PURGE="4" COMMENT="" />
    <EXPORT ORDINAL="413" NAME="??0locale@std@@QAE@XZ" PURGE="0" COMMENT="" />
    <EXPORT ORDINAL="414" NAME="??0logic_error@std@@QAE@ABV01@@Z" PURGE="4" COMMENT="" />
    <EXPORT ORDINAL="415" NAME="??0logic_error@std@@QAE@ABV?$basic_string@DU?$char_traits@D@std@@V?$allocator@D@2@@1@@Z" PURGE="4" COMMENT="" />
    <EXPORT ORDINAL="416" NAME="??0messages_base@std@@QAE@I@Z" PURGE="4" COMMENT="" />
    <EXPORT ORDINAL="417" NAME="??0money_base@std@@QAE@I@Z" PURGE="4" COMMENT="" />
    <EXPORT ORDINAL="418" NAME="??0ostrstream@std@@QAE@PADHH@Z" PURGE="16" COMMENT="" />
    <EXPORT ORDINAL="419" NAME="??0out_of_range@std@@QAE@ABV01@@Z" PURGE="4" COMMENT="" />
    <EXPORT ORDINAL="420" NAME="??0out_of_range@std@@QAE@ABV?$basic_string@DU?$char_traits@D@std@@V?$allocator@D@2@@1@@Z" PURGE="4" COMMENT="" />
    <EXPORT ORDINAL="421" NAME="??0overflow_error@std@@QAE@ABV01@@Z" PURGE="4" COMMENT="" />
    <EXPORT ORDINAL="422" NAME="??0overflow_error@std@@QAE@ABV?$basic_string@DU?$char_traits@D@std@@V?$allocator@D@2@@1@@Z" PURGE="4" COMMENT="" />
    <EXPORT ORDINAL="423" NAME="??0range_error@std@@QAE@ABV01@@Z" PURGE="4" COMMENT="" />
    <EXPORT ORDINAL="424" NAME="??0range_error@std@@QAE@ABV?$basic_string@DU?$char_traits@D@std@@V?$allocator@D@2@@1@@Z" PURGE="4" COMMENT="" />
    <EXPORT ORDINAL="425" NAME="??0runtime_error@std@@QAE@ABV01@@Z" PURGE="4" COMMENT="" />
    <EXPORT ORDINAL="426" NAME="??0runtime_error@std@@QAE@ABV?$basic_string@DU?$char_traits@D@std@@V?$allocator@D@2@@1@@Z" PURGE="4" COMMENT="" />
    <EXPORT ORDINAL="427" NAME="??0strstream@std@@QAE@PADHH@Z" PURGE="16" COMMENT="" />
    <EXPORT ORDINAL="428" NAME="??0time_base@std@@QAE@I@Z" PURGE="4" COMMENT="" />
    <EXPORT ORDINAL="429" NAME="??0underflow_error@std@@QAE@ABV01@@Z" PURGE="4" COMMENT="" />
    <EXPORT ORDINAL="430" NAME="??0underflow_error@std@@QAE@ABV?$basic_string@DU?$char_traits@D@std@@V?$allocator@D@2@@1@@Z" PURGE="4" COMMENT="" />
    <EXPORT ORDINAL="431" NAME="??1?$_Mpunct@D@std@@UAE@XZ" PURGE="0" COMMENT="" />
    <EXPORT ORDINAL="432" NAME="??1?$_Mpunct@G@std@@UAE@XZ" PURGE="0" COMMENT="" />
    <EXPORT ORDINAL="433" NAME="??1?$basic_filebuf@DU?$char_traits@D@std@@@std@@UAE@XZ" PURGE="0" COMMENT="" />
    <EXPORT ORDINAL="434" NAME="??1?$basic_filebuf@GU?$char_traits@G@std@@@std@@UAE@XZ" PURGE="0" COMMENT="" />
    <EXPORT ORDINAL="435" NAME="??1?$basic_fstream@DU?$char_traits@D@std@@@std@@UAE@XZ" PURGE="0" COMMENT="" />
    <EXPORT ORDINAL="436" NAME="??1?$basic_fstream@GU?$char_traits@G@std@@@std@@UAE@XZ" PURGE="0" COMMENT="" />
    <EXPORT ORDINAL="437" NAME="??1?$basic_ifstream@DU?$char_traits@D@std@@@std@@UAE@XZ" PURGE="0" COMMENT="" />
    <EXPORT ORDINAL="438" NAME="??1?$basic_ifstream@GU?$char_traits@G@std@@@std@@UAE@XZ" PURGE="0" COMMENT="" />
    <EXPORT ORDINAL="439" NAME="??1?$basic_ios@DU?$char_traits@D@std@@@std@@UAE@XZ" PURGE="0" COMMENT="" />
    <EXPORT ORDINAL="440" NAME="??1?$basic_ios@GU?$char_traits@G@std@@@std@@UAE@XZ" PURGE="0" COMMENT="" />
    <EXPORT ORDINAL="441" NAME="??1?$basic_iostream@DU?$char_traits@D@std@@@std@@UAE@XZ" PURGE="0" COMMENT="" />
    <EXPORT ORDINAL="442" NAME="??1?$basic_iostream@GU?$char_traits@G@std@@@std@@UAE@XZ" PURGE="0" COMMENT="" />
    <EXPORT ORDINAL="443" NAME="??1?$basic_istream@DU?$char_traits@D@std@@@std@@UAE@XZ" PURGE="0" COMMENT="" />
    <EXPORT ORDINAL="444" NAME="??1?$basic_istream@GU?$char_traits@G@std@@@std@@UAE@XZ" PURGE="0" COMMENT="" />
    <EXPORT ORDINAL="445" NAME="??1?$basic_istringstream@DU?$char_traits@D@std@@V?$allocator@D@2@@std@@UAE@XZ" PURGE="0" COMMENT="" />
    <EXPORT ORDINAL="446" NAME="??1?$basic_istringstream@GU?$char_traits@G@std@@V?$allocator@G@2@@std@@UAE@XZ" PURGE="0" COMMENT="" />
    <EXPORT ORDINAL="447" NAME="??1?$basic_ofstream@DU?$char_traits@D@std@@@std@@UAE@XZ" PURGE="0" COMMENT="" />
    <EXPORT ORDINAL="448" NAME="??1?$basic_ofstream@GU?$char_traits@G@std@@@std@@UAE@XZ" PURGE="0" COMMENT="" />
    <EXPORT ORDINAL="449" NAME="??1?$basic_ostream@DU?$char_traits@D@std@@@std@@UAE@XZ" PURGE="0" COMMENT="" />
    <EXPORT ORDINAL="450" NAME="??1?$basic_ostream@GU?$char_traits@G@std@@@std@@UAE@XZ" PURGE="0" COMMENT="" />
    <EXPORT ORDINAL="451" NAME="??1?$basic_ostringstream@DU?$char_traits@D@std@@V?$allocator@D@2@@std@@UAE@XZ" PURGE="0" COMMENT="" />
    <EXPORT ORDINAL="452" NAME="??1?$basic_ostringstream@GU?$char_traits@G@std@@V?$allocator@G@2@@std@@UAE@XZ" PURGE="0" COMMENT="" />
    <EXPORT ORDINAL="453" NAME="??1?$basic_streambuf@DU?$char_traits@D@std@@@std@@UAE@XZ" PURGE="0" COMMENT="" />
    <EXPORT ORDINAL="454" NAME="??1?$basic_streambuf@GU?$char_traits@G@std@@@std@@UAE@XZ" PURGE="0" COMMENT="" />
    <EXPORT ORDINAL="455" NAME="??1?$basic_string@DU?$char_traits@D@std@@V?$allocator@D@2@@std@@QAE@XZ" PURGE="0" COMMENT="" />
    <EXPORT ORDINAL="456" NAME="??1?$basic_string@GU?$char_traits@G@std@@V?$allocator@G@2@@std@@QAE@XZ" PURGE="0" COMMENT="" />
    <EXPORT ORDINAL="457" NAME="??1?$basic_stringbuf@DU?$char_traits@D@std@@V?$allocator@D@2@@std@@UAE@XZ" PURGE="0" COMMENT="" />
    <EXPORT ORDINAL="458" NAME="??1?$basic_stringbuf@GU?$char_traits@G@std@@V?$allocator@G@2@@std@@UAE@XZ" PURGE="0" COMMENT="" />
    <EXPORT ORDINAL="459" NAME="??1?$basic_stringstream@DU?$char_traits@D@std@@V?$allocator@D@2@@std@@UAE@XZ" PURGE="0" COMMENT="" />
    <EXPORT ORDINAL="460" NAME="??1?$basic_stringstream@GU?$char_traits@G@std@@V?$allocator@G@2@@std@@UAE@XZ" PURGE="0" COMMENT="" />
    <EXPORT ORDINAL="461" NAME="??1?$codecvt@DDH@std@@UAE@XZ" PURGE="0" COMMENT="" />
    <EXPORT ORDINAL="462" NAME="??1?$codecvt@GDH@std@@UAE@XZ" PURGE="0" COMMENT="" />
    <EXPORT ORDINAL="463" NAME="??1?$collate@D@std@@UAE@XZ" PURGE="0" COMMENT="" />
    <EXPORT ORDINAL="464" NAME="??1?$collate@G@std@@UAE@XZ" PURGE="0" COMMENT="" />
    <EXPORT ORDINAL="465" NAME="??1?$ctype@D@std@@UAE@XZ" PURGE="0" COMMENT="" />
    <EXPORT ORDINAL="466" NAME="??1?$ctype@G@std@@UAE@XZ" PURGE="0" COMMENT="" />
    <EXPORT ORDINAL="467" NAME="??1?$messages@D@std@@UAE@XZ" PURGE="0" COMMENT="" />
    <EXPORT ORDINAL="468" NAME="??1?$messages@G@std@@UAE@XZ" PURGE="0" COMMENT="" />
    <EXPORT ORDINAL="469" NAME="??1?$money_get@DV?$istreambuf_iterator@DU?$char_traits@D@std@@@std@@@std@@UAE@XZ" PURGE="0" COMMENT="" />
    <EXPORT ORDINAL="470" NAME="??1?$money_get@GV?$istreambuf_iterator@GU?$char_traits@G@std@@@std@@@std@@UAE@XZ" PURGE="0" COMMENT="" />
    <EXPORT ORDINAL="471" NAME="??1?$money_put@DV?$ostreambuf_iterator@DU?$char_traits@D@std@@@std@@@std@@UAE@XZ" PURGE="0" COMMENT="" />
    <EXPORT ORDINAL="472" NAME="??1?$money_put@GV?$ostreambuf_iterator@GU?$char_traits@G@std@@@std@@@std@@UAE@XZ" PURGE="0" COMMENT="" />
    <EXPORT ORDINAL="473" NAME="??1?$moneypunct@D$00@std@@UAE@XZ" PURGE="0" COMMENT="" />
    <EXPORT ORDINAL="474" NAME="??1?$moneypunct@D$0A@@std@@UAE@XZ" PURGE="0" COMMENT="" />
    <EXPORT ORDINAL="475" NAME="??1?$moneypunct@G$00@std@@UAE@XZ" PURGE="0" COMMENT="" />
    <EXPORT ORDINAL="476" NAME="??1?$moneypunct@G$0A@@std@@UAE@XZ" PURGE="0" COMMENT="" />
    <EXPORT ORDINAL="477" NAME="??1?$num_get@DV?$istreambuf_iterator@DU?$char_traits@D@std@@@std@@@std@@UAE@XZ" PURGE="0" COMMENT="" />
    <EXPORT ORDINAL="478" NAME="??1?$num_get@GV?$istreambuf_iterator@GU?$char_traits@G@std@@@std@@@std@@UAE@XZ" PURGE="0" COMMENT="" />
    <EXPORT ORDINAL="479" NAME="??1?$num_put@DV?$ostreambuf_iterator@DU?$char_traits@D@std@@@std@@@std@@UAE@XZ" PURGE="0" COMMENT="" />
    <EXPORT ORDINAL="480" NAME="??1?$num_put@GV?$ostreambuf_iterator@GU?$char_traits@G@std@@@std@@@std@@UAE@XZ" PURGE="0" COMMENT="" />
    <EXPORT ORDINAL="481" NAME="??1?$numpunct@D@std@@UAE@XZ" PURGE="0" COMMENT="" />
    <EXPORT ORDINAL="482" NAME="??1?$numpunct@G@std@@UAE@XZ" PURGE="0" COMMENT="" />
    <EXPORT ORDINAL="483" NAME="??1?$time_get@DV?$istreambuf_iterator@DU?$char_traits@D@std@@@std@@@std@@UAE@XZ" PURGE="0" COMMENT="" />
    <EXPORT ORDINAL="484" NAME="??1?$time_get@GV?$istreambuf_iterator@GU?$char_traits@G@std@@@std@@@std@@UAE@XZ" PURGE="0" COMMENT="" />
    <EXPORT ORDINAL="485" NAME="??1?$time_put@DV?$ostreambuf_iterator@DU?$char_traits@D@std@@@std@@@std@@UAE@XZ" PURGE="0" COMMENT="" />
    <EXPORT ORDINAL="486" NAME="??1?$time_put@GV?$ostreambuf_iterator@GU?$char_traits@G@std@@@std@@@std@@UAE@XZ" PURGE="0" COMMENT="" />
    <EXPORT ORDINAL="487" NAME="??1Init@ios_base@std@@QAE@XZ" PURGE="0" COMMENT="" />
    <EXPORT ORDINAL="488" NAME="??1_Locinfo@std@@QAE@XZ" PURGE="0" COMMENT="" />
    <EXPORT ORDINAL="489" NAME="??1_Lockit@std@@QAE@XZ" PURGE="0" COMMENT="" />
    <EXPORT ORDINAL="490" NAME="??1_Timevec@std@@QAE@XZ" PURGE="0" COMMENT="" />
    <EXPORT ORDINAL="491" NAME="??1_Winit@std@@QAE@XZ" PURGE="0" COMMENT="" />
    <EXPORT ORDINAL="492" NAME="??1__non_rtti_object@std@@UAE@XZ" PURGE="-1" COMMENT="" />
    <EXPORT ORDINAL="493" NAME="??1bad_alloc@std@@UAE@XZ" PURGE="-1" COMMENT="" />
    <EXPORT ORDINAL="494" NAME="??1bad_cast@std@@UAE@XZ" PURGE="-1" COMMENT="" />
    <EXPORT ORDINAL="495" NAME="??1bad_exception@std@@UAE@XZ" PURGE="-1" COMMENT="" />
    <EXPORT ORDINAL="496" NAME="??1bad_typeid@std@@UAE@XZ" PURGE="-1" COMMENT="" />
    <EXPORT ORDINAL="497" NAME="??1codecvt_base@std@@UAE@XZ" PURGE="0" COMMENT="" />
    <EXPORT ORDINAL="498" NAME="??1ctype_base@std@@UAE@XZ" PURGE="0" COMMENT="" />
    <EXPORT ORDINAL="499" NAME="??1domain_error@std@@UAE@XZ" PURGE="-1" COMMENT="" />
    <EXPORT ORDINAL="500" NAME="??1facet@locale@std@@UAE@XZ" PURGE="0" COMMENT="" />
    <EXPORT ORDINAL="501" NAME="??1ios_base@std@@UAE@XZ" PURGE="0" COMMENT="" />
    <EXPORT ORDINAL="502" NAME="??1istrstream@std@@UAE@XZ" PURGE="0" COMMENT="" />
    <EXPORT ORDINAL="503" NAME="??1length_error@std@@UAE@XZ" PURGE="-1" COMMENT="" />
    <EXPORT ORDINAL="504" NAME="??1locale@std@@QAE@XZ" PURGE="0" COMMENT="" />
    <EXPORT ORDINAL="505" NAME="??1logic_error@std@@UAE@XZ" PURGE="-1" COMMENT="" />
    <EXPORT ORDINAL="506" NAME="??1messages_base@std@@UAE@XZ" PURGE="0" COMMENT="" />
    <EXPORT ORDINAL="507" NAME="??1money_base@std@@UAE@XZ" PURGE="0" COMMENT="" />
    <EXPORT ORDINAL="508" NAME="??1ostrstream@std@@UAE@XZ" PURGE="0" COMMENT="" />
    <EXPORT ORDINAL="509" NAME="??1out_of_range@std@@UAE@XZ" PURGE="-1" COMMENT="" />
    <EXPORT ORDINAL="510" NAME="??1overflow_error@std@@UAE@XZ" PURGE="-1" COMMENT="" />
    <EXPORT ORDINAL="511" NAME="??1range_error@std@@UAE@XZ" PURGE="-1" COMMENT="" />
    <EXPORT ORDINAL="512" NAME="??1runtime_error@std@@UAE@XZ" PURGE="-1" COMMENT="" />
    <EXPORT ORDINAL="513" NAME="??1strstream@std@@UAE@XZ" PURGE="0" COMMENT="" />
    <EXPORT ORDINAL="514" NAME="??1strstreambuf@std@@UAE@XZ" PURGE="0" COMMENT="" />
    <EXPORT ORDINAL="515" NAME="??1time_base@std@@UAE@XZ" PURGE="0" COMMENT="" />
    <EXPORT ORDINAL="516" NAME="??1underflow_error@std@@UAE@XZ" PURGE="-1" COMMENT="" />
    <EXPORT ORDINAL="517" NAME="??4?$_Complex_base@M@std@@QAEAAV01@$$QAV01@@Z" PURGE="4" COMMENT="" />
    <EXPORT ORDINAL="518" NAME="??4?$_Complex_base@M@std@@QAEAAV01@ABV01@@Z" PURGE="4" COMMENT="" />
    <EXPORT ORDINAL="519" NAME="??4?$_Complex_base@N@std@@QAEAAV01@$$QAV01@@Z" PURGE="4" COMMENT="" />
    <EXPORT ORDINAL="520" NAME="??4?$_Complex_base@N@std@@QAEAAV01@ABV01@@Z" PURGE="4" COMMENT="" />
    <EXPORT ORDINAL="521" NAME="??4?$_Complex_base@O@std@@QAEAAV01@$$QAV01@@Z" PURGE="4" COMMENT="" />
    <EXPORT ORDINAL="522" NAME="??4?$_Complex_base@O@std@@QAEAAV01@ABV01@@Z" PURGE="4" COMMENT="" />
    <EXPORT ORDINAL="523" NAME="??4?$_Ctr@M@std@@QAEAAV01@$$QAV01@@Z" PURGE="4" COMMENT="" />
    <EXPORT ORDINAL="524" NAME="??4?$_Ctr@M@std@@QAEAAV01@ABV01@@Z" PURGE="4" COMMENT="" />
    <EXPORT ORDINAL="525" NAME="??4?$_Ctr@N@std@@QAEAAV01@$$QAV01@@Z" PURGE="4" COMMENT="" />
    <EXPORT ORDINAL="526" NAME="??4?$_Ctr@N@std@@QAEAAV01@ABV01@@Z" PURGE="4" COMMENT="" />
    <EXPORT ORDINAL="527" NAME="??4?$_Ctr@O@std@@QAEAAV01@$$QAV01@@Z" PURGE="4" COMMENT="" />
    <EXPORT ORDINAL="528" NAME="??4?$_Ctr@O@std@@QAEAAV01@ABV01@@Z" PURGE="4" COMMENT="" />
    <EXPORT ORDINAL="529" NAME="??4?$allocator@X@std@@QAEAAV01@$$QAV01@@Z" PURGE="4" COMMENT="" />
    <EXPORT ORDINAL="530" NAME="??4?$allocator@X@std@@QAEAAV01@ABV01@@Z" PURGE="4" COMMENT="" />
    <EXPORT ORDINAL="531" NAME="??4?$basic_filebuf@DU?$char_traits@D@std@@@std@@QAEAAV01@ABV01@@Z" PURGE="4" COMMENT="" />
    <EXPORT ORDINAL="532" NAME="??4?$basic_filebuf@GU?$char_traits@G@std@@@std@@QAEAAV01@ABV01@@Z" PURGE="4" COMMENT="" />
    <EXPORT ORDINAL="533" NAME="??4?$basic_fstream@DU?$char_traits@D@std@@@std@@QAEAAV01@ABV01@@Z" PURGE="4" COMMENT="" />
    <EXPORT ORDINAL="534" NAME="??4?$basic_fstream@GU?$char_traits@G@std@@@std@@QAEAAV01@ABV01@@Z" PURGE="4" COMMENT="" />
    <EXPORT ORDINAL="535" NAME="??4?$basic_ifstream@DU?$char_traits@D@std@@@std@@QAEAAV01@ABV01@@Z" PURGE="4" COMMENT="" />
    <EXPORT ORDINAL="536" NAME="??4?$basic_ifstream@GU?$char_traits@G@std@@@std@@QAEAAV01@ABV01@@Z" PURGE="4" COMMENT="" />
    <EXPORT ORDINAL="537" NAME="??4?$basic_ios@DU?$char_traits@D@std@@@std@@QAEAAV01@ABV01@@Z" PURGE="4" COMMENT="" />
    <EXPORT ORDINAL="538" NAME="??4?$basic_ios@GU?$char_traits@G@std@@@std@@QAEAAV01@ABV01@@Z" PURGE="4" COMMENT="" />
    <EXPORT ORDINAL="539" NAME="??4?$basic_iostream@DU?$char_traits@D@std@@@std@@QAEAAV01@ABV01@@Z" PURGE="4" COMMENT="" />
    <EXPORT ORDINAL="540" NAME="??4?$basic_iostream@GU?$char_traits@G@std@@@std@@QAEAAV01@ABV01@@Z" PURGE="4" COMMENT="" />
    <EXPORT ORDINAL="541" NAME="??4?$basic_istream@DU?$char_traits@D@std@@@std@@QAEAAV01@ABV01@@Z" PURGE="4" COMMENT="" />
    <EXPORT ORDINAL="542" NAME="??4?$basic_istream@GU?$char_traits@G@std@@@std@@QAEAAV01@ABV01@@Z" PURGE="4" COMMENT="" />
    <EXPORT ORDINAL="543" NAME="??4?$basic_istringstream@DU?$char_traits@D@std@@V?$allocator@D@2@@std@@QAEAAV01@ABV01@@Z" PURGE="4" COMMENT="" />
    <EXPORT ORDINAL="544" NAME="??4?$basic_istringstream@GU?$char_traits@G@std@@V?$allocator@G@2@@std@@QAEAAV01@ABV01@@Z" PURGE="4" COMMENT="" />
    <EXPORT ORDINAL="545" NAME="??4?$basic_ofstream@DU?$char_traits@D@std@@@std@@QAEAAV01@ABV01@@Z" PURGE="4" COMMENT="" />
    <EXPORT ORDINAL="546" NAME="??4?$basic_ofstream@GU?$char_traits@G@std@@@std@@QAEAAV01@ABV01@@Z" PURGE="4" COMMENT="" />
    <EXPORT ORDINAL="547" NAME="??4?$basic_ostream@DU?$char_traits@D@std@@@std@@QAEAAV01@ABV01@@Z" PURGE="4" COMMENT="" />
    <EXPORT ORDINAL="548" NAME="??4?$basic_ostream@GU?$char_traits@G@std@@@std@@QAEAAV01@ABV01@@Z" PURGE="4" COMMENT="" />
    <EXPORT ORDINAL="549" NAME="??4?$basic_ostringstream@DU?$char_traits@D@std@@V?$allocator@D@2@@std@@QAEAAV01@ABV01@@Z" PURGE="4" COMMENT="" />
    <EXPORT ORDINAL="550" NAME="??4?$basic_ostringstream@GU?$char_traits@G@std@@V?$allocator@G@2@@std@@QAEAAV01@ABV01@@Z" PURGE="4" COMMENT="" />
    <EXPORT ORDINAL="551" NAME="??4?$basic_streambuf@DU?$char_traits@D@std@@@std@@QAEAAV01@ABV01@@Z" PURGE="4" COMMENT="" />
    <EXPORT ORDINAL="552" NAME="??4?$basic_streambuf@GU?$char_traits@G@std@@@std@@QAEAAV01@ABV01@@Z" PURGE="4" COMMENT="" />
    <EXPORT ORDINAL="553" NAME="??4?$basic_string@DU?$char_traits@D@std@@V?$allocator@D@2@@std@@QAEAAV01@ABV01@@Z" PURGE="4" COMMENT="" />
    <EXPORT ORDINAL="554" NAME="??4?$basic_string@DU?$char_traits@D@std@@V?$allocator@D@2@@std@@QAEAAV01@D@Z" PURGE="4" COMMENT="" />
    <EXPORT ORDINAL="555" NAME="??4?$basic_string@DU?$char_traits@D@std@@V?$allocator@D@2@@std@@QAEAAV01@PBD@Z" PURGE="4" COMMENT="" />
    <EXPORT ORDINAL="556" NAME="??4?$basic_string@GU?$char_traits@G@std@@V?$allocator@G@2@@std@@QAEAAV01@ABV01@@Z" PURGE="4" COMMENT="" />
    <EXPORT ORDINAL="557" NAME="??4?$basic_string@GU?$char_traits@G@std@@V?$allocator@G@2@@std@@QAEAAV01@G@Z" PURGE="4" COMMENT="" />
    <EXPORT ORDINAL="558" NAME="??4?$basic_string@GU?$char_traits@G@std@@V?$allocator@G@2@@std@@QAEAAV01@PBG@Z" PURGE="4" COMMENT="" />
    <EXPORT ORDINAL="559" NAME="??4?$basic_stringbuf@DU?$char_traits@D@std@@V?$allocator@D@2@@std@@QAEAAV01@ABV01@@Z" PURGE="4" COMMENT="" />
    <EXPORT ORDINAL="560" NAME="??4?$basic_stringbuf@GU?$char_traits@G@std@@V?$allocator@G@2@@std@@QAEAAV01@ABV01@@Z" PURGE="4" COMMENT="" />
    <EXPORT ORDINAL="561" NAME="??4?$basic_stringstream@DU?$char_traits@D@std@@V?$allocator@D@2@@std@@QAEAAV01@ABV01@@Z" PURGE="4" COMMENT="" />
    <EXPORT ORDINAL="562" NAME="??4?$basic_stringstream@GU?$char_traits@G@std@@V?$allocator@G@2@@std@@QAEAAV01@ABV01@@Z" PURGE="4" COMMENT="" />
    <EXPORT ORDINAL="563" NAME="??4?$char_traits@D@std@@QAEAAU01@$$QAU01@@Z" PURGE="4" COMMENT="" />
    <EXPORT ORDINAL="564" NAME="??4?$char_traits@D@std@@QAEAAU01@ABU01@@Z" PURGE="4" COMMENT="" />
    <EXPORT ORDINAL="565" NAME="??4?$char_traits@G@std@@QAEAAU01@$$QAU01@@Z" PURGE="4" COMMENT="" />
    <EXPORT ORDINAL="566" NAME="??4?$char_traits@G@std@@QAEAAU01@ABU01@@Z" PURGE="4" COMMENT="" />
    <EXPORT ORDINAL="567" NAME="??4?$complex@M@std@@QAEAAV01@$$QAV01@@Z" PURGE="4" COMMENT="" />
    <EXPORT ORDINAL="568" NAME="??4?$complex@M@std@@QAEAAV01@ABM@Z" PURGE="4" COMMENT="" />
    <EXPORT ORDINAL="569" NAME="??4?$complex@M@std@@QAEAAV01@ABV01@@Z" PURGE="4" COMMENT="" />
    <EXPORT ORDINAL="570" NAME="??4?$complex@N@std@@QAEAAV01@$$QAV01@@Z" PURGE="4" COMMENT="" />
    <EXPORT ORDINAL="571" NAME="??4?$complex@N@std@@QAEAAV01@ABN@Z" PURGE="4" COMMENT="" />
    <EXPORT ORDINAL="572" NAME="??4?$complex@N@std@@QAEAAV01@ABV01@@Z" PURGE="4" COMMENT="" />
    <EXPORT ORDINAL="573" NAME="??4?$complex@O@std@@QAEAAV01@$$QAV01@@Z" PURGE="4" COMMENT="" />
    <EXPORT ORDINAL="574" NAME="??4?$complex@O@std@@QAEAAV01@ABO@Z" PURGE="4" COMMENT="" />
    <EXPORT ORDINAL="575" NAME="??4?$complex@O@std@@QAEAAV01@ABV01@@Z" PURGE="4" COMMENT="" />
    <EXPORT ORDINAL="576" NAME="??4?$numeric_limits@C@std@@QAEAAV01@$$QAV01@@Z" PURGE="4" COMMENT="" />
    <EXPORT ORDINAL="577" NAME="??4?$numeric_limits@C@std@@QAEAAV01@ABV01@@Z" PURGE="4" COMMENT="" />
    <EXPORT ORDINAL="578" NAME="??4?$numeric_limits@D@std@@QAEAAV01@$$QAV01@@Z" PURGE="4" COMMENT="" />
    <EXPORT ORDINAL="579" NAME="??4?$numeric_limits@D@std@@QAEAAV01@ABV01@@Z" PURGE="4" COMMENT="" />
    <EXPORT ORDINAL="580" NAME="??4?$numeric_limits@E@std@@QAEAAV01@$$QAV01@@Z" PURGE="4" COMMENT="" />
    <EXPORT ORDINAL="581" NAME="??4?$numeric_limits@E@std@@QAEAAV01@ABV01@@Z" PURGE="4" COMMENT="" />
    <EXPORT ORDINAL="582" NAME="??4?$numeric_limits@F@std@@QAEAAV01@$$QAV01@@Z" PURGE="4" COMMENT="" />
    <EXPORT ORDINAL="583" NAME="??4?$numeric_limits@F@std@@QAEAAV01@ABV01@@Z" PURGE="4" COMMENT="" />
    <EXPORT ORDINAL="584" NAME="??4?$numeric_limits@G@std@@QAEAAV01@$$QAV01@@Z" PURGE="4" COMMENT="" />
    <EXPORT ORDINAL="585" NAME="??4?$numeric_limits@G@std@@QAEAAV01@ABV01@@Z" PURGE="4" COMMENT="" />
    <EXPORT ORDINAL="586" NAME="??4?$numeric_limits@H@std@@QAEAAV01@$$QAV01@@Z" PURGE="4" COMMENT="" />
    <EXPORT ORDINAL="587" NAME="??4?$numeric_limits@H@std@@QAEAAV01@ABV01@@Z" PURGE="4" COMMENT="" />
    <EXPORT ORDINAL="588" NAME="??4?$numeric_limits@I@std@@QAEAAV01@$$QAV01@@Z" PURGE="4" COMMENT="" />
    <EXPORT ORDINAL="589" NAME="??4?$numeric_limits@I@std@@QAEAAV01@ABV01@@Z" PURGE="4" COMMENT="" />
    <EXPORT ORDINAL="590" NAME="??4?$numeric_limits@J@std@@QAEAAV01@$$QAV01@@Z" PURGE="4" COMMENT="" />
    <EXPORT ORDINAL="591" NAME="??4?$numeric_limits@J@std@@QAEAAV01@ABV01@@Z" PURGE="4" COMMENT="" />
    <EXPORT ORDINAL="592" NAME="??4?$numeric_limits@K@std@@QAEAAV01@$$QAV01@@Z" PURGE="4" COMMENT="" />
    <EXPORT ORDINAL="593" NAME="??4?$numeric_limits@K@std@@QAEAAV01@ABV01@@Z" PURGE="4" COMMENT="" />
    <EXPORT ORDINAL="594" NAME="??4?$numeric_limits@M@std@@QAEAAV01@$$QAV01@@Z" PURGE="4" COMMENT="" />
    <EXPORT ORDINAL="595" NAME="??4?$numeric_limits@M@std@@QAEAAV01@ABV01@@Z" PURGE="4" COMMENT="" />
    <EXPORT ORDINAL="596" NAME="??4?$numeric_limits@N@std@@QAEAAV01@$$QAV01@@Z" PURGE="4" COMMENT="" />
    <EXPORT ORDINAL="597" NAME="??4?$numeric_limits@N@std@@QAEAAV01@ABV01@@Z" PURGE="4" COMMENT="" />
    <EXPORT ORDINAL="598" NAME="??4?$numeric_limits@O@std@@QAEAAV01@$$QAV01@@Z" PURGE="4" COMMENT="" />
    <EXPORT ORDINAL="599" NAME="??4?$numeric_limits@O@std@@QAEAAV01@ABV01@@Z" PURGE="4" COMMENT="" />
    <EXPORT ORDINAL="600" NAME="??4?$numeric_limits@_N@std@@QAEAAV01@$$QAV01@@Z" PURGE="4" COMMENT="" />
    <EXPORT ORDINAL="601" NAME="??4?$numeric_limits@_N@std@@QAEAAV01@ABV01@@Z" PURGE="4" COMMENT="" />
    <EXPORT ORDINAL="602" NAME="??4Init@ios_base@std@@QAEAAV012@ABV012@@Z" PURGE="4" COMMENT="" />
    <EXPORT ORDINAL="603" NAME="??4_Locinfo@std@@QAEAAV01@ABV01@@Z" PURGE="4" COMMENT="" />
    <EXPORT ORDINAL="604" NAME="??4_Lockit@std@@QAEAAV01@ABV01@@Z" PURGE="4" COMMENT="" />
    <EXPORT ORDINAL="605" NAME="??4_Num_base@std@@QAEAAU01@$$QAU01@@Z" PURGE="4" COMMENT="" />
    <EXPORT ORDINAL="606" NAME="??4_Num_base@std@@QAEAAU01@ABU01@@Z" PURGE="4" COMMENT="" />
    <EXPORT ORDINAL="607" NAME="??4_Num_float_base@std@@QAEAAU01@$$QAU01@@Z" PURGE="4" COMMENT="" />
    <EXPORT ORDINAL="608" NAME="??4_Num_float_base@std@@QAEAAU01@ABU01@@Z" PURGE="4" COMMENT="" />
    <EXPORT ORDINAL="609" NAME="??4_Num_int_base@std@@QAEAAU01@$$QAU01@@Z" PURGE="4" COMMENT="" />
    <EXPORT ORDINAL="610" NAME="??4_Num_int_base@std@@QAEAAU01@ABU01@@Z" PURGE="4" COMMENT="" />
    <EXPORT ORDINAL="611" NAME="??4_Timevec@std@@QAEAAV01@ABV01@@Z" PURGE="4" COMMENT="" />
    <EXPORT ORDINAL="612" NAME="??4_Winit@std@@QAEAAV01@ABV01@@Z" PURGE="4" COMMENT="" />
    <EXPORT ORDINAL="613" NAME="??4__non_rtti_object@std@@QAEAAV01@$$QAV01@@Z" PURGE="4" COMMENT="" />
    <EXPORT ORDINAL="614" NAME="??4__non_rtti_object@std@@QAEAAV01@ABV01@@Z" PURGE="4" COMMENT="" />
    <EXPORT ORDINAL="615" NAME="??4bad_alloc@std@@QAEAAV01@ABV01@@Z" PURGE="4" COMMENT="" />
    <EXPORT ORDINAL="616" NAME="??4bad_cast@std@@QAEAAV01@ABV01@@Z" PURGE="4" COMMENT="" />
    <EXPORT ORDINAL="617" NAME="??4bad_exception@std@@QAEAAV01@ABV01@@Z" PURGE="4" COMMENT="" />
    <EXPORT ORDINAL="618" NAME="??4bad_typeid@std@@QAEAAV01@ABV01@@Z" PURGE="4" COMMENT="" />
    <EXPORT ORDINAL="619" NAME="??4domain_error@std@@QAEAAV01@ABV01@@Z" PURGE="4" COMMENT="" />
    <EXPORT ORDINAL="620" NAME="??4id@locale@std@@QAEAAV012@$$QAV012@@Z" PURGE="4" COMMENT="" />
    <EXPORT ORDINAL="621" NAME="??4id@locale@std@@QAEAAV012@ABV012@@Z" PURGE="4" COMMENT="" />
    <EXPORT ORDINAL="622" NAME="??4ios_base@std@@QAEAAV01@ABV01@@Z" PURGE="4" COMMENT="" />
    <EXPORT ORDINAL="623" NAME="??4length_error@std@@QAEAAV01@ABV01@@Z" PURGE="4" COMMENT="" />
    <EXPORT ORDINAL="624" NAME="??4locale@std@@QAEAAV01@ABV01@@Z" PURGE="4" COMMENT="" />
    <EXPORT ORDINAL="625" NAME="??4logic_error@std@@QAEAAV01@ABV01@@Z" PURGE="4" COMMENT="" />
    <EXPORT ORDINAL="626" NAME="??4out_of_range@std@@QAEAAV01@ABV01@@Z" PURGE="4" COMMENT="" />
    <EXPORT ORDINAL="627" NAME="??4overflow_error@std@@QAEAAV01@ABV01@@Z" PURGE="4" COMMENT="" />
    <EXPORT ORDINAL="628" NAME="??4range_error@std@@QAEAAV01@ABV01@@Z" PURGE="4" COMMENT="" />
    <EXPORT ORDINAL="629" NAME="??4runtime_error@std@@QAEAAV01@ABV01@@Z" PURGE="4" COMMENT="" />
    <EXPORT ORDINAL="630" NAME="??4underflow_error@std@@QAEAAV01@ABV01@@Z" PURGE="4" COMMENT="" />
    <EXPORT ORDINAL="631" NAME="??5?$basic_istream@DU?$char_traits@D@std@@@std@@QAEAAV01@AAF@Z" PURGE="4" COMMENT="" />
    <EXPORT ORDINAL="632" NAME="??5?$basic_istream@DU?$char_traits@D@std@@@std@@QAEAAV01@AAG@Z" PURGE="4" COMMENT="" />
    <EXPORT ORDINAL="633" NAME="??5?$basic_istream@DU?$char_traits@D@std@@@std@@QAEAAV01@AAH@Z" PURGE="4" COMMENT="" />
    <EXPORT ORDINAL="634" NAME="??5?$basic_istream@DU?$char_traits@D@std@@@std@@QAEAAV01@AAI@Z" PURGE="4" COMMENT="" />
    <EXPORT ORDINAL="635" NAME="??5?$basic_istream@DU?$char_traits@D@std@@@std@@QAEAAV01@AAJ@Z" PURGE="4" COMMENT="" />
    <EXPORT ORDINAL="636" NAME="??5?$basic_istream@DU?$char_traits@D@std@@@std@@QAEAAV01@AAK@Z" PURGE="4" COMMENT="" />
    <EXPORT ORDINAL="637" NAME="??5?$basic_istream@DU?$char_traits@D@std@@@std@@QAEAAV01@AAM@Z" PURGE="4" COMMENT="" />
    <EXPORT ORDINAL="638" NAME="??5?$basic_istream@DU?$char_traits@D@std@@@std@@QAEAAV01@AAN@Z" PURGE="4" COMMENT="" />
    <EXPORT ORDINAL="639" NAME="??5?$basic_istream@DU?$char_traits@D@std@@@std@@QAEAAV01@AAO@Z" PURGE="4" COMMENT="" />
    <EXPORT ORDINAL="640" NAME="??5?$basic_istream@DU?$char_traits@D@std@@@std@@QAEAAV01@AAPAX@Z" PURGE="4" COMMENT="" />
    <EXPORT ORDINAL="641" NAME="??5?$basic_istream@DU?$char_traits@D@std@@@std@@QAEAAV01@AA_N@Z" PURGE="4" COMMENT="" />
    <EXPORT ORDINAL="642" NAME="??5?$basic_istream@DU?$char_traits@D@std@@@std@@QAEAAV01@P6AAAV01@AAV01@@Z@Z" PURGE="4" COMMENT="" />
    <EXPORT ORDINAL="643" NAME="??5?$basic_istream@DU?$char_traits@D@std@@@std@@QAEAAV01@P6AAAV?$basic_ios@DU?$char_traits@D@std@@@1@AAV21@@Z@Z" PURGE="4" COMMENT="" />
    <EXPORT ORDINAL="644" NAME="??5?$basic_istream@DU?$char_traits@D@std@@@std@@QAEAAV01@P6AAAVios_base@1@AAV21@@Z@Z" PURGE="4" COMMENT="" />
    <EXPORT ORDINAL="645" NAME="??5?$basic_istream@DU?$char_traits@D@std@@@std@@QAEAAV01@PAV?$basic_streambuf@DU?$char_traits@D@std@@@1@@Z" PURGE="4" COMMENT="" />
    <EXPORT ORDINAL="646" NAME="??5?$basic_istream@GU?$char_traits@G@std@@@std@@QAEAAV01@AAF@Z" PURGE="4" COMMENT="" />
    <EXPORT ORDINAL="647" NAME="??5?$basic_istream@GU?$char_traits@G@std@@@std@@QAEAAV01@AAG@Z" PURGE="4" COMMENT="" />
    <EXPORT ORDINAL="648" NAME="??5?$basic_istream@GU?$char_traits@G@std@@@std@@QAEAAV01@AAH@Z" PURGE="4" COMMENT="" />
    <EXPORT ORDINAL="649" NAME="??5?$basic_istream@GU?$char_traits@G@std@@@std@@QAEAAV01@AAI@Z" PURGE="4" COMMENT="" />
    <EXPORT ORDINAL="650" NAME="??5?$basic_istream@GU?$char_traits@G@std@@@std@@QAEAAV01@AAJ@Z" PURGE="4" COMMENT="" />
    <EXPORT ORDINAL="651" NAME="??5?$basic_istream@GU?$char_traits@G@std@@@std@@QAEAAV01@AAK@Z" PURGE="4" COMMENT="" />
    <EXPORT ORDINAL="652" NAME="??5?$basic_istream@GU?$char_traits@G@std@@@std@@QAEAAV01@AAM@Z" PURGE="4" COMMENT="" />
    <EXPORT ORDINAL="653" NAME="??5?$basic_istream@GU?$char_traits@G@std@@@std@@QAEAAV01@AAN@Z" PURGE="4" COMMENT="" />
    <EXPORT ORDINAL="654" NAME="??5?$basic_istream@GU?$char_traits@G@std@@@std@@QAEAAV01@AAO@Z" PURGE="4" COMMENT="" />
    <EXPORT ORDINAL="655" NAME="??5?$basic_istream@GU?$char_traits@G@std@@@std@@QAEAAV01@AAPAX@Z" PURGE="4" COMMENT="" />
    <EXPORT ORDINAL="656" NAME="??5?$basic_istream@GU?$char_traits@G@std@@@std@@QAEAAV01@AA_N@Z" PURGE="4" COMMENT="" />
    <EXPORT ORDINAL="657" NAME="??5?$basic_istream@GU?$char_traits@G@std@@@std@@QAEAAV01@P6AAAV01@AAV01@@Z@Z" PURGE="4" COMMENT="" />
    <EXPORT ORDINAL="658" NAME="??5?$basic_istream@GU?$char_traits@G@std@@@std@@QAEAAV01@P6AAAV?$basic_ios@GU?$char_traits@G@std@@@1@AAV21@@Z@Z" PURGE="4" COMMENT="" />
    <EXPORT ORDINAL="659" NAME="??5?$basic_istream@GU?$char_traits@G@std@@@std@@QAEAAV01@P6AAAVios_base@1@AAV21@@Z@Z" PURGE="4" COMMENT="" />
    <EXPORT ORDINAL="660" NAME="??5?$basic_istream@GU?$char_traits@G@std@@@std@@QAEAAV01@PAV?$basic_streambuf@GU?$char_traits@G@std@@@1@@Z" PURGE="4" COMMENT="" />
    <EXPORT ORDINAL="661" NAME="??$?5DU?$char_traits@D@std@@@std@@YAAAV?$basic_istream@DU?$char_traits@D@std@@@0@AAV10@AAC@Z" PURGE="0" COMMENT="" />
    <EXPORT ORDINAL="662" NAME="??$?5DU?$char_traits@D@std@@@std@@YAAAV?$basic_istream@DU?$char_traits@D@std@@@0@AAV10@AAD@Z" PURGE="0" COMMENT="" />
    <EXPORT ORDINAL="663" NAME="??$?5DU?$char_traits@D@std@@@std@@YAAAV?$basic_istream@DU?$char_traits@D@std@@@0@AAV10@AAE@Z" PURGE="0" COMMENT="" />
    <EXPORT ORDINAL="664" NAME="??$?5DU?$char_traits@D@std@@V?$allocator@D@1@@std@@YAAAV?$basic_istream@DU?$char_traits@D@std@@@0@AAV10@AAV?$basic_string@DU?$char_traits@D@std@@V?$allocator@D@2@@0@@Z" PURGE="0" COMMENT="" />
    <EXPORT ORDINAL="665" NAME="??$?5DU?$char_traits@D@std@@M@std@@YAAAV?$basic_istream@DU?$char_traits@D@std@@@0@AAV10@AAV?$complex@M@0@@Z" PURGE="0" COMMENT="" />
    <EXPORT ORDINAL="666" NAME="??$?5DU?$char_traits@D@std@@N@std@@YAAAV?$basic_istream@DU?$char_traits@D@std@@@0@AAV10@AAV?$complex@N@0@@Z" PURGE="0" COMMENT="" />
    <EXPORT ORDINAL="667" NAME="??$?5DU?$char_traits@D@std@@O@std@@YAAAV?$basic_istream@DU?$char_traits@D@std@@@0@AAV10@AAV?$complex@O@0@@Z" PURGE="0" COMMENT="" />
    <EXPORT ORDINAL="668" NAME="??$?5DU?$char_traits@D@std@@@std@@YAAAV?$basic_istream@DU?$char_traits@D@std@@@0@AAV10@PAC@Z" PURGE="0" COMMENT="" />
    <EXPORT ORDINAL="669" NAME="??$?5DU?$char_traits@D@std@@@std@@YAAAV?$basic_istream@DU?$char_traits@D@std@@@0@AAV10@PAD@Z" PURGE="0" COMMENT="" />
    <EXPORT ORDINAL="670" NAME="??$?5DU?$char_traits@D@std@@@std@@YAAAV?$basic_istream@DU?$char_traits@D@std@@@0@AAV10@PAE@Z" PURGE="0" COMMENT="" />
    <EXPORT ORDINAL="671" NAME="??$?5GU?$char_traits@G@std@@@std@@YAAAV?$basic_istream@GU?$char_traits@G@std@@@0@AAV10@AAG@Z" PURGE="0" COMMENT="" />
    <EXPORT ORDINAL="672" NAME="??$?5GU?$char_traits@G@std@@V?$allocator@G@1@@std@@YAAAV?$basic_istream@GU?$char_traits@G@std@@@0@AAV10@AAV?$basic_string@GU?$char_traits@G@std@@V?$allocator@G@2@@0@@Z" PURGE="0" COMMENT="" />
    <EXPORT ORDINAL="673" NAME="??$?5GU?$char_traits@G@std@@M@std@@YAAAV?$basic_istream@GU?$char_traits@G@std@@@0@AAV10@AAV?$complex@M@0@@Z" PURGE="0" COMMENT="" />
    <EXPORT ORDINAL="674" NAME="??$?5GU?$char_traits@G@std@@N@std@@YAAAV?$basic_istream@GU?$char_traits@G@std@@@0@AAV10@AAV?$complex@N@0@@Z" PURGE="0" COMMENT="" />
    <EXPORT ORDINAL="675" NAME="??$?5GU?$char_traits@G@std@@O@std@@YAAAV?$basic_istream@GU?$char_traits@G@std@@@0@AAV10@AAV?$complex@O@0@@Z" PURGE="0" COMMENT="" />
    <EXPORT ORDINAL="676" NAME="??$?5GU?$char_traits@G@std@@@std@@YAAAV?$basic_istream@GU?$char_traits@G@std@@@0@AAV10@PAF@Z" PURGE="0" COMMENT="" />
    <EXPORT ORDINAL="677" NAME="??$?5GU?$char_traits@G@std@@@std@@YAAAV?$basic_istream@GU?$char_traits@G@std@@@0@AAV10@PAG@Z" PURGE="0" COMMENT="" />
    <EXPORT ORDINAL="678" NAME="??6?$basic_ostream@DU?$char_traits@D@std@@@std@@QAEAAV01@F@Z" PURGE="4" COMMENT="" />
    <EXPORT ORDINAL="679" NAME="??6?$basic_ostream@DU?$char_traits@D@std@@@std@@QAEAAV01@G@Z" PURGE="4" COMMENT="" />
    <EXPORT ORDINAL="680" NAME="??6?$basic_ostream@DU?$char_traits@D@std@@@std@@QAEAAV01@H@Z" PURGE="4" COMMENT="" />
    <EXPORT ORDINAL="681" NAME="??6?$basic_ostream@DU?$char_traits@D@std@@@std@@QAEAAV01@I@Z" PURGE="4" COMMENT="" />
    <EXPORT ORDINAL="682" NAME="??6?$basic_ostream@DU?$char_traits@D@std@@@std@@QAEAAV01@J@Z" PURGE="4" COMMENT="" />
    <EXPORT ORDINAL="683" NAME="??6?$basic_ostream@DU?$char_traits@D@std@@@std@@QAEAAV01@K@Z" PURGE="4" COMMENT="" />
    <EXPORT ORDINAL="684" NAME="??6?$basic_ostream@DU?$char_traits@D@std@@@std@@QAEAAV01@M@Z" PURGE="4" COMMENT="" />
    <EXPORT ORDINAL="685" NAME="??6?$basic_ostream@DU?$char_traits@D@std@@@std@@QAEAAV01@N@Z" PURGE="8" COMMENT="" />
    <EXPORT ORDINAL="686" NAME="??6?$basic_ostream@DU?$char_traits@D@std@@@std@@QAEAAV01@O@Z" PURGE="8" COMMENT="" />
    <EXPORT ORDINAL="687" NAME="??6?$basic_ostream@DU?$char_traits@D@std@@@std@@QAEAAV01@P6AAAV01@AAV01@@Z@Z" PURGE="4" COMMENT="" />
    <EXPORT ORDINAL="688" NAME="??6?$basic_ostream@DU?$char_traits@D@std@@@std@@QAEAAV01@P6AAAV?$basic_ios@DU?$char_traits@D@std@@@1@AAV21@@Z@Z" PURGE="4" COMMENT="" />
    <EXPORT ORDINAL="689" NAME="??6?$basic_ostream@DU?$char_traits@D@std@@@std@@QAEAAV01@P6AAAVios_base@1@AAV21@@Z@Z" PURGE="4" COMMENT="" />
    <EXPORT ORDINAL="690" NAME="??6?$basic_ostream@DU?$char_traits@D@std@@@std@@QAEAAV01@PAV?$basic_streambuf@DU?$char_traits@D@std@@@1@@Z" PURGE="4" COMMENT="" />
    <EXPORT ORDINAL="691" NAME="??6?$basic_ostream@DU?$char_traits@D@std@@@std@@QAEAAV01@PBX@Z" PURGE="4" COMMENT="" />
    <EXPORT ORDINAL="692" NAME="??6?$basic_ostream@DU?$char_traits@D@std@@@std@@QAEAAV01@_N@Z" PURGE="4" COMMENT="" />
    <EXPORT ORDINAL="693" NAME="??6?$basic_ostream@GU?$char_traits@G@std@@@std@@QAEAAV01@F@Z" PURGE="4" COMMENT="" />
    <EXPORT ORDINAL="694" NAME="??6?$basic_ostream@GU?$char_traits@G@std@@@std@@QAEAAV01@G@Z" PURGE="4" COMMENT="" />
    <EXPORT ORDINAL="695" NAME="??6?$basic_ostream@GU?$char_traits@G@std@@@std@@QAEAAV01@H@Z" PURGE="4" COMMENT="" />
    <EXPORT ORDINAL="696" NAME="??6?$basic_ostream@GU?$char_traits@G@std@@@std@@QAEAAV01@I@Z" PURGE="4" COMMENT="" />
    <EXPORT ORDINAL="697" NAME="??6?$basic_ostream@GU?$char_traits@G@std@@@std@@QAEAAV01@J@Z" PURGE="4" COMMENT="" />
    <EXPORT ORDINAL="698" NAME="??6?$basic_ostream@GU?$char_traits@G@std@@@std@@QAEAAV01@K@Z" PURGE="4" COMMENT="" />
    <EXPORT ORDINAL="699" NAME="??6?$basic_ostream@GU?$char_traits@G@std@@@std@@QAEAAV01@M@Z" PURGE="4" COMMENT="" />
    <EXPORT ORDINAL="700" NAME="??6?$basic_ostream@GU?$char_traits@G@std@@@std@@QAEAAV01@N@Z" PURGE="8" COMMENT="" />
    <EXPORT ORDINAL="701" NAME="??6?$basic_ostream@GU?$char_traits@G@std@@@std@@QAEAAV01@O@Z" PURGE="8" COMMENT="" />
    <EXPORT ORDINAL="702" NAME="??6?$basic_ostream@GU?$char_traits@G@std@@@std@@QAEAAV01@P6AAAV01@AAV01@@Z@Z" PURGE="4" COMMENT="" />
    <EXPORT ORDINAL="703" NAME="??6?$basic_ostream@GU?$char_traits@G@std@@@std@@QAEAAV01@P6AAAV?$basic_ios@GU?$char_traits@G@std@@@1@AAV21@@Z@Z" PURGE="4" COMMENT="" />
    <EXPORT ORDINAL="704" NAME="??6?$basic_ostream@GU?$char_traits@G@std@@@std@@QAEAAV01@P6AAAVios_base@1@AAV21@@Z@Z" PURGE="4" COMMENT="" />
    <EXPORT ORDINAL="705" NAME="??6?$basic_ostream@GU?$char_traits@G@std@@@std@@QAEAAV01@PAV?$basic_streambuf@GU?$char_traits@G@std@@@1@@Z" PURGE="4" COMMENT="" />
    <EXPORT ORDINAL="706" NAME="??6?$basic_ostream@GU?$char_traits@G@std@@@std@@QAEAAV01@PBX@Z" PURGE="4" COMMENT="" />
    <EXPORT ORDINAL="707" NAME="??6?$basic_ostream@GU?$char_traits@G@std@@@std@@QAEAAV01@_N@Z" PURGE="4" COMMENT="" />
    <EXPORT ORDINAL="708" NAME="??$?6DU?$char_traits@D@std@@V?$allocator@D@1@@std@@YAAAV?$basic_ostream@DU?$char_traits@D@std@@@0@AAV10@ABV?$basic_string@DU?$char_traits@D@std@@V?$allocator@D@2@@0@@Z" PURGE="0" COMMENT="" />
    <EXPORT ORDINAL="709" NAME="??$?6DU?$char_traits@D@std@@M@std@@YAAAV?$basic_ostream@DU?$char_traits@D@std@@@0@AAV10@ABV?$complex@M@0@@Z" PURGE="0" COMMENT="" />
    <EXPORT ORDINAL="710" NAME="??$?6DU?$char_traits@D@std@@N@std@@YAAAV?$basic_ostream@DU?$char_traits@D@std@@@0@AAV10@ABV?$complex@N@0@@Z" PURGE="0" COMMENT="" />
    <EXPORT ORDINAL="711" NAME="??$?6DU?$char_traits@D@std@@O@std@@YAAAV?$basic_ostream@DU?$char_traits@D@std@@@0@AAV10@ABV?$complex@O@0@@Z" PURGE="0" COMMENT="" />
    <EXPORT ORDINAL="712" NAME="??$?6DU?$char_traits@D@std@@@std@@YAAAV?$basic_ostream@DU?$char_traits@D@std@@@0@AAV10@C@Z" PURGE="0" COMMENT="" />
    <EXPORT ORDINAL="713" NAME="??$?6DU?$char_traits@D@std@@@std@@YAAAV?$basic_ostream@DU?$char_traits@D@std@@@0@AAV10@D@Z" PURGE="0" COMMENT="" />
    <EXPORT ORDINAL="714" NAME="??$?6DU?$char_traits@D@std@@@std@@YAAAV?$basic_ostream@DU?$char_traits@D@std@@@0@AAV10@E@Z" PURGE="0" COMMENT="" />
    <EXPORT ORDINAL="715" NAME="??$?6DU?$char_traits@D@std@@@std@@YAAAV?$basic_ostream@DU?$char_traits@D@std@@@0@AAV10@PBC@Z" PURGE="0" COMMENT="" />
    <EXPORT ORDINAL="716" NAME="??$?6DU?$char_traits@D@std@@@std@@YAAAV?$basic_ostream@DU?$char_traits@D@std@@@0@AAV10@PBD@Z" PURGE="0" COMMENT="" />
    <EXPORT ORDINAL="717" NAME="??$?6DU?$char_traits@D@std@@@std@@YAAAV?$basic_ostream@DU?$char_traits@D@std@@@0@AAV10@PBE@Z" PURGE="0" COMMENT="" />
    <EXPORT ORDINAL="718" NAME="??$?6GU?$char_traits@G@std@@V?$allocator@G@1@@std@@YAAAV?$basic_ostream@GU?$char_traits@G@std@@@0@AAV10@ABV?$basic_string@GU?$char_traits@G@std@@V?$allocator@G@2@@0@@Z" PURGE="0" COMMENT="" />
    <EXPORT ORDINAL="719" NAME="??$?6GU?$char_traits@G@std@@M@std@@YAAAV?$basic_ostream@GU?$char_traits@G@std@@@0@AAV10@ABV?$complex@M@0@@Z" PURGE="0" COMMENT="" />
    <EXPORT ORDINAL="720" NAME="??$?6GU?$char_traits@G@std@@N@std@@YAAAV?$basic_ostream@GU?$char_traits@G@std@@@0@AAV10@ABV?$complex@N@0@@Z" PURGE="0" COMMENT="" />
    <EXPORT ORDINAL="721" NAME="??$?6GU?$char_traits@G@std@@O@std@@YAAAV?$basic_ostream@GU?$char_traits@G@std@@@0@AAV10@ABV?$complex@O@0@@Z" PURGE="0" COMMENT="" />
    <EXPORT ORDINAL="722" NAME="??$?6GU?$char_traits@G@std@@@std@@YAAAV?$basic_ostream@GU?$char_traits@G@std@@@0@AAV10@G@Z" PURGE="0" COMMENT="" />
    <EXPORT ORDINAL="723" NAME="??$?6GU?$char_traits@G@std@@@std@@YAAAV?$basic_ostream@GU?$char_traits@G@std@@@0@AAV10@PBF@Z" PURGE="0" COMMENT="" />
    <EXPORT ORDINAL="724" NAME="??$?6GU?$char_traits@G@std@@@std@@YAAAV?$basic_ostream@GU?$char_traits@G@std@@@0@AAV10@PBG@Z" PURGE="0" COMMENT="" />
    <EXPORT ORDINAL="725" NAME="??7ios_base@std@@QBE_NXZ" PURGE="0" COMMENT="" />
    <EXPORT ORDINAL="726" NAME="??8locale@std@@QBE_NABV01@@Z" PURGE="4" COMMENT="" />
    <EXPORT ORDINAL="727" NAME="??$?8M@std@@YA_NABMABV?$complex@M@0@@Z" PURGE="0" COMMENT="" />
    <EXPORT ORDINAL="728" NAME="??$?8N@std@@YA_NABNABV?$complex@N@0@@Z" PURGE="0" COMMENT="" />
    <EXPORT ORDINAL="729" NAME="??$?8O@std@@YA_NABOABV?$complex@O@0@@Z" PURGE="0" COMMENT="" />
    <EXPORT ORDINAL="730" NAME="??$?8DU?$char_traits@D@std@@V?$allocator@D@1@@std@@YA_NABV?$basic_string@DU?$char_traits@D@std@@V?$allocator@D@2@@0@0@Z" PURGE="0" COMMENT="" />
    <EXPORT ORDINAL="731" NAME="??$?8DU?$char_traits@D@std@@V?$allocator@D@1@@std@@YA_NABV?$basic_string@DU?$char_traits@D@std@@V?$allocator@D@2@@0@PBD@Z" PURGE="0" COMMENT="" />
    <EXPORT ORDINAL="732" NAME="??$?8GU?$char_traits@G@std@@V?$allocator@G@1@@std@@YA_NABV?$basic_string@GU?$char_traits@G@std@@V?$allocator@G@2@@0@0@Z" PURGE="0" COMMENT="" />
    <EXPORT ORDINAL="733" NAME="??$?8GU?$char_traits@G@std@@V?$allocator@G@1@@std@@YA_NABV?$basic_string@GU?$char_traits@G@std@@V?$allocator@G@2@@0@PBG@Z" PURGE="0" COMMENT="" />
    <EXPORT ORDINAL="734" NAME="??$?8M@std@@YA_NABV?$complex@M@0@0@Z" PURGE="0" COMMENT="" />
    <EXPORT ORDINAL="735" NAME="??$?8M@std@@YA_NABV?$complex@M@0@ABM@Z" PURGE="0" COMMENT="" />
    <EXPORT ORDINAL="736" NAME="??$?8N@std@@YA_NABV?$complex@N@0@0@Z" PURGE="0" COMMENT="" />
    <EXPORT ORDINAL="737" NAME="??$?8N@std@@YA_NABV?$complex@N@0@ABN@Z" PURGE="0" COMMENT="" />
    <EXPORT ORDINAL="738" NAME="??$?8O@std@@YA_NABV?$complex@O@0@0@Z" PURGE="0" COMMENT="" />
    <EXPORT ORDINAL="739" NAME="??$?8O@std@@YA_NABV?$complex@O@0@ABO@Z" PURGE="0" COMMENT="" />
    <EXPORT ORDINAL="740" NAME="??$?8DU?$char_traits@D@std@@V?$allocator@D@1@@std@@YA_NPBDABV?$basic_string@DU?$char_traits@D@std@@V?$allocator@D@2@@0@@Z" PURGE="0" COMMENT="" />
    <EXPORT ORDINAL="741" NAME="??$?8GU?$char_traits@G@std@@V?$allocator@G@1@@std@@YA_NPBGABV?$basic_string@GU?$char_traits@G@std@@V?$allocator@G@2@@0@@Z" PURGE="0" COMMENT="" />
    <EXPORT ORDINAL="742" NAME="??9locale@std@@QBE_NABV01@@Z" PURGE="4" COMMENT="" />
    <EXPORT ORDINAL="743" NAME="??$?9M@std@@YA_NABMABV?$complex@M@0@@Z" PURGE="0" COMMENT="" />
    <EXPORT ORDINAL="744" NAME="??$?9N@std@@YA_NABNABV?$complex@N@0@@Z" PURGE="0" COMMENT="" />
    <EXPORT ORDINAL="745" NAME="??$?9O@std@@YA_NABOABV?$complex@O@0@@Z" PURGE="0" COMMENT="" />
    <EXPORT ORDINAL="746" NAME="??$?9DU?$char_traits@D@std@@V?$allocator@D@1@@std@@YA_NABV?$basic_string@DU?$char_traits@D@std@@V?$allocator@D@2@@0@0@Z" PURGE="0" COMMENT="" />
    <EXPORT ORDINAL="747" NAME="??$?9DU?$char_traits@D@std@@V?$allocator@D@1@@std@@YA_NABV?$basic_string@DU?$char_traits@D@std@@V?$allocator@D@2@@0@PBD@Z" PURGE="0" COMMENT="" />
    <EXPORT ORDINAL="748" NAME="??$?9GU?$char_traits@G@std@@V?$allocator@G@1@@std@@YA_NABV?$basic_string@GU?$char_traits@G@std@@V?$allocator@G@2@@0@0@Z" PURGE="0" COMMENT="" />
    <EXPORT ORDINAL="749" NAME="??$?9GU?$char_traits@G@std@@V?$allocator@G@1@@std@@YA_NABV?$basic_string@GU?$char_traits@G@std@@V?$allocator@G@2@@0@PBG@Z" PURGE="0" COMMENT="" />
    <EXPORT ORDINAL="750" NAME="??$?9M@std@@YA_NABV?$complex@M@0@0@Z" PURGE="0" COMMENT="" />
    <EXPORT ORDINAL="751" NAME="??$?9M@std@@YA_NABV?$complex@M@0@ABM@Z" PURGE="0" COMMENT="" />
    <EXPORT ORDINAL="752" NAME="??$?9N@std@@YA_NABV?$complex@N@0@0@Z" PURGE="0" COMMENT="" />
    <EXPORT ORDINAL="753" NAME="??$?9N@std@@YA_NABV?$complex@N@0@ABN@Z" PURGE="0" COMMENT="" />
    <EXPORT ORDINAL="754" NAME="??$?9O@std@@YA_NABV?$complex@O@0@0@Z" PURGE="0" COMMENT="" />
    <EXPORT ORDINAL="755" NAME="??$?9O@std@@YA_NABV?$complex@O@0@ABO@Z" PURGE="0" COMMENT="" />
    <EXPORT ORDINAL="756" NAME="??$?9DU?$char_traits@D@std@@V?$allocator@D@1@@std@@YA_NPBDABV?$basic_string@DU?$char_traits@D@std@@V?$allocator@D@2@@0@@Z" PURGE="0" COMMENT="" />
    <EXPORT ORDINAL="757" NAME="??$?9GU?$char_traits@G@std@@V?$allocator@G@1@@std@@YA_NPBGABV?$basic_string@GU?$char_traits@G@std@@V?$allocator@G@2@@0@@Z" PURGE="0" COMMENT="" />
    <EXPORT ORDINAL="758" NAME="??A?$basic_string@DU?$char_traits@D@std@@V?$allocator@D@2@@std@@QAEAADI@Z" PURGE="4" COMMENT="" />
    <EXPORT ORDINAL="759" NAME="??A?$basic_string@DU?$char_traits@D@std@@V?$allocator@D@2@@std@@QBEABDI@Z" PURGE="4" COMMENT="" />
    <EXPORT ORDINAL="760" NAME="??A?$basic_string@GU?$char_traits@G@std@@V?$allocator@G@2@@std@@QAEAAGI@Z" PURGE="4" COMMENT="" />
    <EXPORT ORDINAL="761" NAME="??A?$basic_string@GU?$char_traits@G@std@@V?$allocator@G@2@@std@@QBEABGI@Z" PURGE="4" COMMENT="" />
    <EXPORT ORDINAL="762" NAME="??Bid@locale@std@@QAEIXZ" PURGE="0" COMMENT="" />
    <EXPORT ORDINAL="763" NAME="??Bios_base@std@@QBEPAXXZ" PURGE="0" COMMENT="" />
    <EXPORT ORDINAL="764" NAME="??$?DM@std@@YA?AV?$complex@M@0@ABMABV10@@Z" PURGE="0" COMMENT="" />
    <EXPORT ORDINAL="765" NAME="??$?DM@std@@YA?AV?$complex@M@0@ABV10@0@Z" PURGE="0" COMMENT="" />
    <EXPORT ORDINAL="766" NAME="??$?DM@std@@YA?AV?$complex@M@0@ABV10@ABM@Z" PURGE="0" COMMENT="" />
    <EXPORT ORDINAL="767" NAME="??$?DN@std@@YA?AV?$complex@N@0@ABNABV10@@Z" PURGE="0" COMMENT="" />
    <EXPORT ORDINAL="768" NAME="??$?DN@std@@YA?AV?$complex@N@0@ABV10@0@Z" PURGE="0" COMMENT="" />
    <EXPORT ORDINAL="769" NAME="??$?DN@std@@YA?AV?$complex@N@0@ABV10@ABN@Z" PURGE="0" COMMENT="" />
    <EXPORT ORDINAL="770" NAME="??$?DO@std@@YA?AV?$complex@O@0@ABOABV10@@Z" PURGE="0" COMMENT="" />
    <EXPORT ORDINAL="771" NAME="??$?DO@std@@YA?AV?$complex@O@0@ABV10@0@Z" PURGE="0" COMMENT="" />
    <EXPORT ORDINAL="772" NAME="??$?DO@std@@YA?AV?$complex@O@0@ABV10@ABO@Z" PURGE="0" COMMENT="" />
    <EXPORT ORDINAL="773" NAME="??$?GM@std@@YA?AV?$complex@M@0@ABMABV10@@Z" PURGE="0" COMMENT="" />
    <EXPORT ORDINAL="774" NAME="??$?GM@std@@YA?AV?$complex@M@0@ABV10@0@Z" PURGE="0" COMMENT="" />
    <EXPORT ORDINAL="775" NAME="??$?GM@std@@YA?AV?$complex@M@0@ABV10@@Z" PURGE="0" COMMENT="" />
    <EXPORT ORDINAL="776" NAME="??$?GM@std@@YA?AV?$complex@M@0@ABV10@ABM@Z" PURGE="0" COMMENT="" />
    <EXPORT ORDINAL="777" NAME="??$?GN@std@@YA?AV?$complex@N@0@ABNABV10@@Z" PURGE="0" COMMENT="" />
    <EXPORT ORDINAL="778" NAME="??$?GN@std@@YA?AV?$complex@N@0@ABV10@0@Z" PURGE="0" COMMENT="" />
    <EXPORT ORDINAL="779" NAME="??$?GN@std@@YA?AV?$complex@N@0@ABV10@@Z" PURGE="0" COMMENT="" />
    <EXPORT ORDINAL="780" NAME="??$?GN@std@@YA?AV?$complex@N@0@ABV10@ABN@Z" PURGE="0" COMMENT="" />
    <EXPORT ORDINAL="781" NAME="??$?GO@std@@YA?AV?$complex@O@0@ABOABV10@@Z" PURGE="0" COMMENT="" />
    <EXPORT ORDINAL="782" NAME="??$?GO@std@@YA?AV?$complex@O@0@ABV10@0@Z" PURGE="0" COMMENT="" />
    <EXPORT ORDINAL="783" NAME="??$?GO@std@@YA?AV?$complex@O@0@ABV10@@Z" PURGE="0" COMMENT="" />
    <EXPORT ORDINAL="784" NAME="??$?GO@std@@YA?AV?$complex@O@0@ABV10@ABO@Z" PURGE="0" COMMENT="" />
    <EXPORT ORDINAL="785" NAME="??$?HDU?$char_traits@D@std@@V?$allocator@D@1@@std@@YA?AV?$basic_string@DU?$char_traits@D@std@@V?$allocator@D@2@@0@ABV10@0@Z" PURGE="0" COMMENT="" />
    <EXPORT ORDINAL="786" NAME="??$?HDU?$char_traits@D@std@@V?$allocator@D@1@@std@@YA?AV?$basic_string@DU?$char_traits@D@std@@V?$allocator@D@2@@0@ABV10@D@Z" PURGE="0" COMMENT="" />
    <EXPORT ORDINAL="787" NAME="??$?HDU?$char_traits@D@std@@V?$allocator@D@1@@std@@YA?AV?$basic_string@DU?$char_traits@D@std@@V?$allocator@D@2@@0@ABV10@PBD@Z" PURGE="0" COMMENT="" />
    <EXPORT ORDINAL="788" NAME="??$?HDU?$char_traits@D@std@@V?$allocator@D@1@@std@@YA?AV?$basic_string@DU?$char_traits@D@std@@V?$allocator@D@2@@0@DABV10@@Z" PURGE="0" COMMENT="" />
    <EXPORT ORDINAL="789" NAME="??$?HDU?$char_traits@D@std@@V?$allocator@D@1@@std@@YA?AV?$basic_string@DU?$char_traits@D@std@@V?$allocator@D@2@@0@PBDABV10@@Z" PURGE="0" COMMENT="" />
    <EXPORT ORDINAL="790" NAME="??$?HGU?$char_traits@G@std@@V?$allocator@G@1@@std@@YA?AV?$basic_string@GU?$char_traits@G@std@@V?$allocator@G@2@@0@ABV10@0@Z" PURGE="0" COMMENT="" />
    <EXPORT ORDINAL="791" NAME="??$?HGU?$char_traits@G@std@@V?$allocator@G@1@@std@@YA?AV?$basic_string@GU?$char_traits@G@std@@V?$allocator@G@2@@0@ABV10@G@Z" PURGE="0" COMMENT="" />
    <EXPORT ORDINAL="792" NAME="??$?HGU?$char_traits@G@std@@V?$allocator@G@1@@std@@YA?AV?$basic_string@GU?$char_traits@G@std@@V?$allocator@G@2@@0@ABV10@PBG@Z" PURGE="0" COMMENT="" />
    <EXPORT ORDINAL="793" NAME="??$?HGU?$char_traits@G@std@@V?$allocator@G@1@@std@@YA?AV?$basic_string@GU?$char_traits@G@std@@V?$allocator@G@2@@0@GABV10@@Z" PURGE="0" COMMENT="" />
    <EXPORT ORDINAL="794" NAME="??$?HGU?$char_traits@G@std@@V?$allocator@G@1@@std@@YA?AV?$basic_string@GU?$char_traits@G@std@@V?$allocator@G@2@@0@PBGABV10@@Z" PURGE="0" COMMENT="" />
    <EXPORT ORDINAL="795" NAME="??$?HM@std@@YA?AV?$complex@M@0@ABMABV10@@Z" PURGE="0" COMMENT="" />
    <EXPORT ORDINAL="796" NAME="??$?HM@std@@YA?AV?$complex@M@0@ABV10@0@Z" PURGE="0" COMMENT="" />
    <EXPORT ORDINAL="797" NAME="??$?HM@std@@YA?AV?$complex@M@0@ABV10@@Z" PURGE="0" COMMENT="" />
    <EXPORT ORDINAL="798" NAME="??$?HM@std@@YA?AV?$complex@M@0@ABV10@ABM@Z" PURGE="0" COMMENT="" />
    <EXPORT ORDINAL="799" NAME="??$?HN@std@@YA?AV?$complex@N@0@ABNABV10@@Z" PURGE="0" COMMENT="" />
    <EXPORT ORDINAL="800" NAME="??$?HN@std@@YA?AV?$complex@N@0@ABV10@0@Z" PURGE="0" COMMENT="" />
    <EXPORT ORDINAL="801" NAME="??$?HN@std@@YA?AV?$complex@N@0@ABV10@@Z" PURGE="0" COMMENT="" />
    <EXPORT ORDINAL="802" NAME="??$?HN@std@@YA?AV?$complex@N@0@ABV10@ABN@Z" PURGE="0" COMMENT="" />
    <EXPORT ORDINAL="803" NAME="??$?HO@std@@YA?AV?$complex@O@0@ABOABV10@@Z" PURGE="0" COMMENT="" />
    <EXPORT ORDINAL="804" NAME="??$?HO@std@@YA?AV?$complex@O@0@ABV10@0@Z" PURGE="0" COMMENT="" />
    <EXPORT ORDINAL="805" NAME="??$?HO@std@@YA?AV?$complex@O@0@ABV10@@Z" PURGE="0" COMMENT="" />
    <EXPORT ORDINAL="806" NAME="??$?HO@std@@YA?AV?$complex@O@0@ABV10@ABO@Z" PURGE="0" COMMENT="" />
    <EXPORT ORDINAL="807" NAME="??$?KM@std@@YA?AV?$complex@M@0@ABMABV10@@Z" PURGE="0" COMMENT="" />
    <EXPORT ORDINAL="808" NAME="??$?KM@std@@YA?AV?$complex@M@0@ABV10@0@Z" PURGE="0" COMMENT="" />
    <EXPORT ORDINAL="809" NAME="??$?KM@std@@YA?AV?$complex@M@0@ABV10@ABM@Z" PURGE="0" COMMENT="" />
    <EXPORT ORDINAL="810" NAME="??$?KN@std@@YA?AV?$complex@N@0@ABNABV10@@Z" PURGE="0" COMMENT="" />
    <EXPORT ORDINAL="811" NAME="??$?KN@std@@YA?AV?$complex@N@0@ABV10@0@Z" PURGE="0" COMMENT="" />
    <EXPORT ORDINAL="812" NAME="??$?KN@std@@YA?AV?$complex@N@0@ABV10@ABN@Z" PURGE="0" COMMENT="" />
    <EXPORT ORDINAL="813" NAME="??$?KO@std@@YA?AV?$complex@O@0@ABOABV10@@Z" PURGE="0" COMMENT="" />
    <EXPORT ORDINAL="814" NAME="??$?KO@std@@YA?AV?$complex@O@0@ABV10@0@Z" PURGE="0" COMMENT="" />
    <EXPORT ORDINAL="815" NAME="??$?KO@std@@YA?AV?$complex@O@0@ABV10@ABO@Z" PURGE="0" COMMENT="" />
    <EXPORT ORDINAL="816" NAME="??$?MDU?$char_traits@D@std@@V?$allocator@D@1@@std@@YA_NABV?$basic_string@DU?$char_traits@D@std@@V?$allocator@D@2@@0@0@Z" PURGE="0" COMMENT="" />
    <EXPORT ORDINAL="817" NAME="??$?MDU?$char_traits@D@std@@V?$allocator@D@1@@std@@YA_NABV?$basic_string@DU?$char_traits@D@std@@V?$allocator@D@2@@0@PBD@Z" PURGE="0" COMMENT="" />
    <EXPORT ORDINAL="818" NAME="??$?MGU?$char_traits@G@std@@V?$allocator@G@1@@std@@YA_NABV?$basic_string@GU?$char_traits@G@std@@V?$allocator@G@2@@0@0@Z" PURGE="0" COMMENT="" />
    <EXPORT ORDINAL="819" NAME="??$?MGU?$char_traits@G@std@@V?$allocator@G@1@@std@@YA_NABV?$basic_string@GU?$char_traits@G@std@@V?$allocator@G@2@@0@PBG@Z" PURGE="0" COMMENT="" />
    <EXPORT ORDINAL="820" NAME="??$?MDU?$char_traits@D@std@@V?$allocator@D@1@@std@@YA_NPBDABV?$basic_string@DU?$char_traits@D@std@@V?$allocator@D@2@@0@@Z" PURGE="0" COMMENT="" />
    <EXPORT ORDINAL="821" NAME="??$?MGU?$char_traits@G@std@@V?$allocator@G@1@@std@@YA_NPBGABV?$basic_string@GU?$char_traits@G@std@@V?$allocator@G@2@@0@@Z" PURGE="0" COMMENT="" />
    <EXPORT ORDINAL="822" NAME="??$?NDU?$char_traits@D@std@@V?$allocator@D@1@@std@@YA_NABV?$basic_string@DU?$char_traits@D@std@@V?$allocator@D@2@@0@0@Z" PURGE="0" COMMENT="" />
    <EXPORT ORDINAL="823" NAME="??$?NDU?$char_traits@D@std@@V?$allocator@D@1@@std@@YA_NABV?$basic_string@DU?$char_traits@D@std@@V?$allocator@D@2@@0@PBD@Z" PURGE="0" COMMENT="" />
    <EXPORT ORDINAL="824" NAME="??$?NGU?$char_traits@G@std@@V?$allocator@G@1@@std@@YA_NABV?$basic_string@GU?$char_traits@G@std@@V?$allocator@G@2@@0@0@Z" PURGE="0" COMMENT="" />
    <EXPORT ORDINAL="825" NAME="??$?NGU?$char_traits@G@std@@V?$allocator@G@1@@std@@YA_NABV?$basic_string@GU?$char_traits@G@std@@V?$allocator@G@2@@0@PBG@Z" PURGE="0" COMMENT="" />
    <EXPORT ORDINAL="826" NAME="??$?NDU?$char_traits@D@std@@V?$allocator@D@1@@std@@YA_NPBDABV?$basic_string@DU?$char_traits@D@std@@V?$allocator@D@2@@0@@Z" PURGE="0" COMMENT="" />
    <EXPORT ORDINAL="827" NAME="??$?NGU?$char_traits@G@std@@V?$allocator@G@1@@std@@YA_NPBGABV?$basic_string@GU?$char_traits@G@std@@V?$allocator@G@2@@0@@Z" PURGE="0" COMMENT="" />
    <EXPORT ORDINAL="828" NAME="??$?ODU?$char_traits@D@std@@V?$allocator@D@1@@std@@YA_NABV?$basic_string@DU?$char_traits@D@std@@V?$allocator@D@2@@0@0@Z" PURGE="0" COMMENT="" />
    <EXPORT ORDINAL="829" NAME="??$?ODU?$char_traits@D@std@@V?$allocator@D@1@@std@@YA_NABV?$basic_string@DU?$char_traits@D@std@@V?$allocator@D@2@@0@PBD@Z" PURGE="0" COMMENT="" />
    <EXPORT ORDINAL="830" NAME="??$?OGU?$char_traits@G@std@@V?$allocator@G@1@@std@@YA_NABV?$basic_string@GU?$char_traits@G@std@@V?$allocator@G@2@@0@0@Z" PURGE="0" COMMENT="" />
    <EXPORT ORDINAL="831" NAME="??$?OGU?$char_traits@G@std@@V?$allocator@G@1@@std@@YA_NABV?$basic_string@GU?$char_traits@G@std@@V?$allocator@G@2@@0@PBG@Z" PURGE="0" COMMENT="" />
    <EXPORT ORDINAL="832" NAME="??$?ODU?$char_traits@D@std@@V?$allocator@D@1@@std@@YA_NPBDABV?$basic_string@DU?$char_traits@D@std@@V?$allocator@D@2@@0@@Z" PURGE="0" COMMENT="" />
    <EXPORT ORDINAL="833" NAME="??$?OGU?$char_traits@G@std@@V?$allocator@G@1@@std@@YA_NPBGABV?$basic_string@GU?$char_traits@G@std@@V?$allocator@G@2@@0@@Z" PURGE="0" COMMENT="" />
    <EXPORT ORDINAL="834" NAME="??$?PDU?$char_traits@D@std@@V?$allocator@D@1@@std@@YA_NABV?$basic_string@DU?$char_traits@D@std@@V?$allocator@D@2@@0@0@Z" PURGE="0" COMMENT="" />
    <EXPORT ORDINAL="835" NAME="??$?PDU?$char_traits@D@std@@V?$allocator@D@1@@std@@YA_NABV?$basic_string@DU?$char_traits@D@std@@V?$allocator@D@2@@0@PBD@Z" PURGE="0" COMMENT="" />
    <EXPORT ORDINAL="836" NAME="??$?PGU?$char_traits@G@std@@V?$allocator@G@1@@std@@YA_NABV?$basic_string@GU?$char_traits@G@std@@V?$allocator@G@2@@0@0@Z" PURGE="0" COMMENT="" />
    <EXPORT ORDINAL="837" NAME="??$?PGU?$char_traits@G@std@@V?$allocator@G@1@@std@@YA_NABV?$basic_string@GU?$char_traits@G@std@@V?$allocator@G@2@@0@PBG@Z" PURGE="0" COMMENT="" />
    <EXPORT ORDINAL="838" NAME="??$?PDU?$char_traits@D@std@@V?$allocator@D@1@@std@@YA_NPBDABV?$basic_string@DU?$char_traits@D@std@@V?$allocator@D@2@@0@@Z" PURGE="0" COMMENT="" />
    <EXPORT ORDINAL="839" NAME="??$?PGU?$char_traits@G@std@@V?$allocator@G@1@@std@@YA_NPBGABV?$basic_string@GU?$char_traits@G@std@@V?$allocator@G@2@@0@@Z" PURGE="0" COMMENT="" />
    <EXPORT ORDINAL="840" NAME="??Rlocale@std@@QBE_NABV?$basic_string@DU?$char_traits@D@std@@V?$allocator@D@2@@1@0@Z" PURGE="8" COMMENT="" />
    <EXPORT ORDINAL="841" NAME="??X?$_Complex_base@M@std@@QAEAAV01@ABM@Z" PURGE="4" COMMENT="" />
    <EXPORT ORDINAL="842" NAME="??X?$_Complex_base@N@std@@QAEAAV01@ABN@Z" PURGE="4" COMMENT="" />
    <EXPORT ORDINAL="843" NAME="??X?$_Complex_base@O@std@@QAEAAV01@ABO@Z" PURGE="4" COMMENT="" />
    <EXPORT ORDINAL="844" NAME="??$?XMM@std@@YAAAV?$complex@M@0@AAV10@ABV10@@Z" PURGE="0" COMMENT="" />
    <EXPORT ORDINAL="845" NAME="??$?XNN@std@@YAAAV?$complex@N@0@AAV10@ABV10@@Z" PURGE="0" COMMENT="" />
    <EXPORT ORDINAL="846" NAME="??$?XOO@std@@YAAAV?$complex@O@0@AAV10@ABV10@@Z" PURGE="0" COMMENT="" />
    <EXPORT ORDINAL="847" NAME="??Y?$_Complex_base@M@std@@QAEAAV01@ABM@Z" PURGE="4" COMMENT="" />
    <EXPORT ORDINAL="848" NAME="??Y?$_Complex_base@N@std@@QAEAAV01@ABN@Z" PURGE="4" COMMENT="" />
    <EXPORT ORDINAL="849" NAME="??Y?$_Complex_base@O@std@@QAEAAV01@ABO@Z" PURGE="4" COMMENT="" />
    <EXPORT ORDINAL="850" NAME="??Y?$basic_string@DU?$char_traits@D@std@@V?$allocator@D@2@@std@@QAEAAV01@ABV01@@Z" PURGE="4" COMMENT="" />
    <EXPORT ORDINAL="851" NAME="??Y?$basic_string@DU?$char_traits@D@std@@V?$allocator@D@2@@std@@QAEAAV01@D@Z" PURGE="4" COMMENT="" />
    <EXPORT ORDINAL="852" NAME="??Y?$basic_string@DU?$char_traits@D@std@@V?$allocator@D@2@@std@@QAEAAV01@PBD@Z" PURGE="4" COMMENT="" />
    <EXPORT ORDINAL="853" NAME="??Y?$basic_string@GU?$char_traits@G@std@@V?$allocator@G@2@@std@@QAEAAV01@ABV01@@Z" PURGE="4" COMMENT="" />
    <EXPORT ORDINAL="854" NAME="??Y?$basic_string@GU?$char_traits@G@std@@V?$allocator@G@2@@std@@QAEAAV01@G@Z" PURGE="4" COMMENT="" />
    <EXPORT ORDINAL="855" NAME="??Y?$basic_string@GU?$char_traits@G@std@@V?$allocator@G@2@@std@@QAEAAV01@PBG@Z" PURGE="4" COMMENT="" />
    <EXPORT ORDINAL="856" NAME="??$?YMM@std@@YAAAV?$complex@M@0@AAV10@ABV10@@Z" PURGE="0" COMMENT="" />
    <EXPORT ORDINAL="857" NAME="??$?YNN@std@@YAAAV?$complex@N@0@AAV10@ABV10@@Z" PURGE="0" COMMENT="" />
    <EXPORT ORDINAL="858" NAME="??$?YOO@std@@YAAAV?$complex@O@0@AAV10@ABV10@@Z" PURGE="0" COMMENT="" />
    <EXPORT ORDINAL="859" NAME="??Z?$_Complex_base@M@std@@QAEAAV01@ABM@Z" PURGE="4" COMMENT="" />
    <EXPORT ORDINAL="860" NAME="??Z?$_Complex_base@N@std@@QAEAAV01@ABN@Z" PURGE="4" COMMENT="" />
    <EXPORT ORDINAL="861" NAME="??Z?$_Complex_base@O@std@@QAEAAV01@ABO@Z" PURGE="4" COMMENT="" />
    <EXPORT ORDINAL="862" NAME="??$?ZMM@std@@YAAAV?$complex@M@0@AAV10@ABV10@@Z" PURGE="0" COMMENT="" />
    <EXPORT ORDINAL="863" NAME="??$?ZNN@std@@YAAAV?$complex@N@0@AAV10@ABV10@@Z" PURGE="0" COMMENT="" />
    <EXPORT ORDINAL="864" NAME="??$?ZOO@std@@YAAAV?$complex@O@0@AAV10@ABV10@@Z" PURGE="0" COMMENT="" />
    <EXPORT ORDINAL="865" NAME="??_0?$_Complex_base@M@std@@QAEAAV01@ABM@Z" PURGE="4" COMMENT="" />
    <EXPORT ORDINAL="866" NAME="??_0?$_Complex_base@N@std@@QAEAAV01@ABN@Z" PURGE="4" COMMENT="" />
    <EXPORT ORDINAL="867" NAME="??_0?$_Complex_base@O@std@@QAEAAV01@ABO@Z" PURGE="4" COMMENT="" />
    <EXPORT ORDINAL="868" NAME="??$?_0MM@std@@YAAAV?$complex@M@0@AAV10@ABV10@@Z" PURGE="0" COMMENT="" />
    <EXPORT ORDINAL="869" NAME="??$?_0NN@std@@YAAAV?$complex@N@0@AAV10@ABV10@@Z" PURGE="0" COMMENT="" />
    <EXPORT ORDINAL="870" NAME="??$?_0OO@std@@YAAAV?$complex@O@0@AAV10@ABV10@@Z" PURGE="0" COMMENT="" />
    <EXPORT ORDINAL="871" NAME="??_7?$_Mpunct@D@std@@6B@" PURGE="4097" COMMENT="" />
    <EXPORT ORDINAL="872" NAME="??_7?$_Mpunct@G@std@@6B@" PURGE="4097" COMMENT="" />
    <EXPORT ORDINAL="873" NAME="??_7?$basic_filebuf@DU?$char_traits@D@std@@@std@@6B@" PURGE="-1" COMMENT="" />
    <EXPORT ORDINAL="874" NAME="??_7?$basic_filebuf@GU?$char_traits@G@std@@@std@@6B@" PURGE="-1" COMMENT="" />
    <EXPORT ORDINAL="875" NAME="??_7?$basic_fstream@DU?$char_traits@D@std@@@std@@6B@" PURGE="-1" COMMENT="" />
    <EXPORT ORDINAL="876" NAME="??_7?$basic_fstream@GU?$char_traits@G@std@@@std@@6B@" PURGE="-1" COMMENT="" />
    <EXPORT ORDINAL="877" NAME="??_7?$basic_ifstream@DU?$char_traits@D@std@@@std@@6B@" PURGE="-1" COMMENT="" />
    <EXPORT ORDINAL="878" NAME="??_7?$basic_ifstream@GU?$char_traits@G@std@@@std@@6B@" PURGE="-1" COMMENT="" />
    <EXPORT ORDINAL="879" NAME="??_7?$basic_ios@DU?$char_traits@D@std@@@std@@6B@" PURGE="4097" COMMENT="" />
    <EXPORT ORDINAL="880" NAME="??_7?$basic_ios@GU?$char_traits@G@std@@@std@@6B@" PURGE="4097" COMMENT="" />
    <EXPORT ORDINAL="881" NAME="??_7?$basic_iostream@DU?$char_traits@D@std@@@std@@6B@" PURGE="4097" COMMENT="" />
    <EXPORT ORDINAL="882" NAME="??_7?$basic_iostream@GU?$char_traits@G@std@@@std@@6B@" PURGE="4097" COMMENT="" />
    <EXPORT ORDINAL="883" NAME="??_7?$basic_istream@DU?$char_traits@D@std@@@std@@6B@" PURGE="4097" COMMENT="" />
    <EXPORT ORDINAL="884" NAME="??_7?$basic_istream@GU?$char_traits@G@std@@@std@@6B@" PURGE="4097" COMMENT="" />
    <EXPORT ORDINAL="885" NAME="??_7?$basic_istringstream@DU?$char_traits@D@std@@V?$allocator@D@2@@std@@6B@" PURGE="-1" COMMENT="" />
    <EXPORT ORDINAL="886" NAME="??_7?$basic_istringstream@GU?$char_traits@G@std@@V?$allocator@G@2@@std@@6B@" PURGE="-1" COMMENT="" />
    <EXPORT ORDINAL="887" NAME="??_7?$basic_ofstream@DU?$char_traits@D@std@@@std@@6B@" PURGE="-1" COMMENT="" />
    <EXPORT ORDINAL="888" NAME="??_7?$basic_ofstream@GU?$char_traits@G@std@@@std@@6B@" PURGE="-1" COMMENT="" />
    <EXPORT ORDINAL="889" NAME="??_7?$basic_ostream@DU?$char_traits@D@std@@@std@@6B@" PURGE="4097" COMMENT="" />
    <EXPORT ORDINAL="890" NAME="??_7?$basic_ostream@GU?$char_traits@G@std@@@std@@6B@" PURGE="-1" COMMENT="" />
    <EXPORT ORDINAL="891" NAME="??_7?$basic_ostringstream@DU?$char_traits@D@std@@V?$allocator@D@2@@std@@6B@" PURGE="-1" COMMENT="" />
    <EXPORT ORDINAL="892" NAME="??_7?$basic_ostringstream@GU?$char_traits@G@std@@V?$allocator@G@2@@std@@6B@" PURGE="-1" COMMENT="" />
    <EXPORT ORDINAL="893" NAME="??_7?$basic_streambuf@DU?$char_traits@D@std@@@std@@6B@" PURGE="4097" COMMENT="" />
    <EXPORT ORDINAL="894" NAME="??_7?$basic_streambuf@GU?$char_traits@G@std@@@std@@6B@" PURGE="4097" COMMENT="" />
    <EXPORT ORDINAL="895" NAME="??_7?$basic_stringbuf@DU?$char_traits@D@std@@V?$allocator@D@2@@std@@6B@" PURGE="-1" COMMENT="" />
    <EXPORT ORDINAL="896" NAME="??_7?$basic_stringbuf@GU?$char_traits@G@std@@V?$allocator@G@2@@std@@6B@" PURGE="-1" COMMENT="" />
    <EXPORT ORDINAL="897" NAME="??_7?$basic_stringstream@DU?$char_traits@D@std@@V?$allocator@D@2@@std@@6B@" PURGE="-1" COMMENT="" />
    <EXPORT ORDINAL="898" NAME="??_7?$basic_stringstream@GU?$char_traits@G@std@@V?$allocator@G@2@@std@@6B@" PURGE="-1" COMMENT="" />
    <EXPORT ORDINAL="899" NAME="??_7?$codecvt@DDH@std@@6B@" PURGE="4097" COMMENT="" />
    <EXPORT ORDINAL="900" NAME="??_7?$codecvt@GDH@std@@6B@" PURGE="4097" COMMENT="" />
    <EXPORT ORDINAL="901" NAME="??_7?$collate@D@std@@6B@" PURGE="-1" COMMENT="" />
    <EXPORT ORDINAL="902" NAME="??_7?$collate@G@std@@6B@" PURGE="-1" COMMENT="" />
    <EXPORT ORDINAL="903" NAME="??_7?$ctype@D@std@@6B@" PURGE="4097" COMMENT="" />
    <EXPORT ORDINAL="904" NAME="??_7?$ctype@G@std@@6B@" PURGE="4097" COMMENT="" />
    <EXPORT ORDINAL="905" NAME="??_7?$messages@D@std@@6B@" PURGE="-1" COMMENT="" />
    <EXPORT ORDINAL="906" NAME="??_7?$messages@G@std@@6B@" PURGE="-1" COMMENT="" />
    <EXPORT ORDINAL="907" NAME="??_7?$money_get@DV?$istreambuf_iterator@DU?$char_traits@D@std@@@std@@@std@@6B@" PURGE="4097" COMMENT="" />
    <EXPORT ORDINAL="908" NAME="??_7?$money_get@GV?$istreambuf_iterator@GU?$char_traits@G@std@@@std@@@std@@6B@" PURGE="4097" COMMENT="" />
    <EXPORT ORDINAL="909" NAME="??_7?$money_put@DV?$ostreambuf_iterator@DU?$char_traits@D@std@@@std@@@std@@6B@" PURGE="4097" COMMENT="" />
    <EXPORT ORDINAL="910" NAME="??_7?$money_put@GV?$ostreambuf_iterator@GU?$char_traits@G@std@@@std@@@std@@6B@" PURGE="-1" COMMENT="" />
    <EXPORT ORDINAL="911" NAME="??_7?$moneypunct@D$00@std@@6B@" PURGE="4097" COMMENT="" />
    <EXPORT ORDINAL="912" NAME="??_7?$moneypunct@D$0A@@std@@6B@" PURGE="4097" COMMENT="" />
    <EXPORT ORDINAL="913" NAME="??_7?$moneypunct@G$00@std@@6B@" PURGE="4097" COMMENT="" />
    <EXPORT ORDINAL="914" NAME="??_7?$moneypunct@G$0A@@std@@6B@" PURGE="4097" COMMENT="" />
    <EXPORT ORDINAL="915" NAME="??_7?$num_get@DV?$istreambuf_iterator@DU?$char_traits@D@std@@@std@@@std@@6B@" PURGE="4097" COMMENT="" />
    <EXPORT ORDINAL="916" NAME="??_7?$num_get@GV?$istreambuf_iterator@GU?$char_traits@G@std@@@std@@@std@@6B@" PURGE="4097" COMMENT="" />
    <EXPORT ORDINAL="917" NAME="??_7?$num_put@DV?$ostreambuf_iterator@DU?$char_traits@D@std@@@std@@@std@@6B@" PURGE="4097" COMMENT="" />
    <EXPORT ORDINAL="918" NAME="??_7?$num_put@GV?$ostreambuf_iterator@GU?$char_traits@G@std@@@std@@@std@@6B@" PURGE="4097" COMMENT="" />
    <EXPORT ORDINAL="919" NAME="??_7?$numpunct@D@std@@6B@" PURGE="4097" COMMENT="" />
    <EXPORT ORDINAL="920" NAME="??_7?$numpunct@G@std@@6B@" PURGE="4097" COMMENT="" />
    <EXPORT ORDINAL="921" NAME="??_7?$time_get@DV?$istreambuf_iterator@DU?$char_traits@D@std@@@std@@@std@@6B@" PURGE="-1" COMMENT="" />
    <EXPORT ORDINAL="922" NAME="??_7?$time_get@GV?$istreambuf_iterator@GU?$char_traits@G@std@@@std@@@std@@6B@" PURGE="-1" COMMENT="" />
    <EXPORT ORDINAL="923" NAME="??_7?$time_put@DV?$ostreambuf_iterator@DU?$char_traits@D@std@@@std@@@std@@6B@" PURGE="-1" COMMENT="" />
    <EXPORT ORDINAL="924" NAME="??_7?$time_put@GV?$ostreambuf_iterator@GU?$char_traits@G@std@@@std@@@std@@6B@" PURGE="-1" COMMENT="" />
    <EXPORT ORDINAL="925" NAME="??_7__non_rtti_object@std@@6B@" PURGE="4097" COMMENT="" />
    <EXPORT ORDINAL="926" NAME="??_7bad_alloc@std@@6B@" PURGE="4097" COMMENT="" />
    <EXPORT ORDINAL="927" NAME="??_7bad_cast@std@@6B@" PURGE="4097" COMMENT="" />
    <EXPORT ORDINAL="928" NAME="??_7bad_exception@std@@6B@" PURGE="4097" COMMENT="" />
    <EXPORT ORDINAL="929" NAME="??_7bad_typeid@std@@6B@" PURGE="4097" COMMENT="" />
    <EXPORT ORDINAL="930" NAME="??_7codecvt_base@std@@6B@" PURGE="4097" COMMENT="" />
    <EXPORT ORDINAL="931" NAME="??_7ctype_base@std@@6B@" PURGE="4097" COMMENT="" />
    <EXPORT ORDINAL="932" NAME="??_7domain_error@std@@6B@" PURGE="4097" COMMENT="" />
    <EXPORT ORDINAL="933" NAME="??_7facet@locale@std@@6B@" PURGE="4097" COMMENT="" />
    <EXPORT ORDINAL="934" NAME="??_7ios_base@std@@6B@" PURGE="4097" COMMENT="" />
    <EXPORT ORDINAL="935" NAME="??_7length_error@std@@6B@" PURGE="4097" COMMENT="" />
    <EXPORT ORDINAL="936" NAME="??_7logic_error@std@@6B@" PURGE="4097" COMMENT="" />
    <EXPORT ORDINAL="937" NAME="??_7messages_base@std@@6B@" PURGE="-1" COMMENT="" />
    <EXPORT ORDINAL="938" NAME="??_7money_base@std@@6B@" PURGE="4097" COMMENT="" />
    <EXPORT ORDINAL="939" NAME="??_7out_of_range@std@@6B@" PURGE="4097" COMMENT="" />
    <EXPORT ORDINAL="940" NAME="??_7overflow_error@std@@6B@" PURGE="4097" COMMENT="" />
    <EXPORT ORDINAL="941" NAME="??_7range_error@std@@6B@" PURGE="4097" COMMENT="" />
    <EXPORT ORDINAL="942" NAME="??_7runtime_error@std@@6B@" PURGE="4097" COMMENT="" />
    <EXPORT ORDINAL="943" NAME="??_7time_base@std@@6B@" PURGE="-1" COMMENT="" />
    <EXPORT ORDINAL="944" NAME="??_7underflow_error@std@@6B@" PURGE="4097" COMMENT="" />
    <EXPORT ORDINAL="945" NAME="??_8?$basic_fstream@DU?$char_traits@D@std@@@std@@7B?$basic_istream@DU?$char_traits@D@std@@@1@@" PURGE="-1" COMMENT="" />
    <EXPORT ORDINAL="946" NAME="??_8?$basic_fstream@DU?$char_traits@D@std@@@std@@7B?$basic_ostream@DU?$char_traits@D@std@@@1@@" PURGE="-1" COMMENT="" />
    <EXPORT ORDINAL="947" NAME="??_8?$basic_fstream@GU?$char_traits@G@std@@@std@@7B?$basic_istream@GU?$char_traits@G@std@@@1@@" PURGE="-1" COMMENT="" />
    <EXPORT ORDINAL="948" NAME="??_8?$basic_fstream@GU?$char_traits@G@std@@@std@@7B?$basic_ostream@GU?$char_traits@G@std@@@1@@" PURGE="-1" COMMENT="" />
    <EXPORT ORDINAL="949" NAME="??_8?$basic_ifstream@DU?$char_traits@D@std@@@std@@7B@" PURGE="-1" COMMENT="" />
    <EXPORT ORDINAL="950" NAME="??_8?$basic_ifstream@GU?$char_traits@G@std@@@std@@7B@" PURGE="-1" COMMENT="" />
    <EXPORT ORDINAL="951" NAME="??_8?$basic_iostream@DU?$char_traits@D@std@@@std@@7B?$basic_istream@DU?$char_traits@D@std@@@1@@" PURGE="-1" COMMENT="" />
    <EXPORT ORDINAL="952" NAME="??_8?$basic_iostream@DU?$char_traits@D@std@@@std@@7B?$basic_ostream@DU?$char_traits@D@std@@@1@@" PURGE="-1" COMMENT="" />
    <EXPORT ORDINAL="953" NAME="??_8?$basic_iostream@GU?$char_traits@G@std@@@std@@7B?$basic_istream@GU?$char_traits@G@std@@@1@@" PURGE="-1" COMMENT="" />
    <EXPORT ORDINAL="954" NAME="??_8?$basic_iostream@GU?$char_traits@G@std@@@std@@7B?$basic_ostream@GU?$char_traits@G@std@@@1@@" PURGE="-1" COMMENT="" />
    <EXPORT ORDINAL="955" NAME="??_8?$basic_istream@DU?$char_traits@D@std@@@std@@7B@" PURGE="-1" COMMENT="" />
    <EXPORT ORDINAL="956" NAME="??_8?$basic_istream@GU?$char_traits@G@std@@@std@@7B@" PURGE="-1" COMMENT="" />
    <EXPORT ORDINAL="957" NAME="??_8?$basic_istringstream@DU?$char_traits@D@std@@V?$allocator@D@2@@std@@7B@" PURGE="-1" COMMENT="" />
    <EXPORT ORDINAL="958" NAME="??_8?$basic_istringstream@GU?$char_traits@G@std@@V?$allocator@G@2@@std@@7B@" PURGE="-1" COMMENT="" />
    <EXPORT ORDINAL="959" NAME="??_8?$basic_ofstream@DU?$char_traits@D@std@@@std@@7B@" PURGE="-1" COMMENT="" />
    <EXPORT ORDINAL="960" NAME="??_8?$basic_ofstream@GU?$char_traits@G@std@@@std@@7B@" PURGE="-1" COMMENT="" />
    <EXPORT ORDINAL="961" NAME="??_8?$basic_ostream@DU?$char_traits@D@std@@@std@@7B@" PURGE="-1" COMMENT="" />
    <EXPORT ORDINAL="962" NAME="??_8?$basic_ostream@GU?$char_traits@G@std@@@std@@7B@" PURGE="-1" COMMENT="" />
    <EXPORT ORDINAL="963" NAME="??_8?$basic_ostringstream@DU?$char_traits@D@std@@V?$allocator@D@2@@std@@7B@" PURGE="-1" COMMENT="" />
    <EXPORT ORDINAL="964" NAME="??_8?$basic_ostringstream@GU?$char_traits@G@std@@V?$allocator@G@2@@std@@7B@" PURGE="-1" COMMENT="" />
    <EXPORT ORDINAL="965" NAME="??_8?$basic_stringstream@DU?$char_traits@D@std@@V?$allocator@D@2@@std@@7B?$basic_istream@DU?$char_traits@D@std@@@1@@" PURGE="-1" COMMENT="" />
    <EXPORT ORDINAL="966" NAME="??_8?$basic_stringstream@DU?$char_traits@D@std@@V?$allocator@D@2@@std@@7B?$basic_ostream@DU?$char_traits@D@std@@@1@@" PURGE="-1" COMMENT="" />
    <EXPORT ORDINAL="967" NAME="??_8?$basic_stringstream@GU?$char_traits@G@std@@V?$allocator@G@2@@std@@7B?$basic_istream@GU?$char_traits@G@std@@@1@@" PURGE="-1" COMMENT="" />
    <EXPORT ORDINAL="968" NAME="??_8?$basic_stringstream@GU?$char_traits@G@std@@V?$allocator@G@2@@std@@7B?$basic_ostream@GU?$char_traits@G@std@@@1@@" PURGE="-1" COMMENT="" />
    <EXPORT ORDINAL="969" NAME="??_D?$basic_fstream@DU?$char_traits@D@std@@@std@@QAEXXZ" PURGE="0" COMMENT="" />
    <EXPORT ORDINAL="970" NAME="??_D?$basic_fstream@GU?$char_traits@G@std@@@std@@QAEXXZ" PURGE="0" COMMENT="" />
    <EXPORT ORDINAL="971" NAME="??_D?$basic_ifstream@DU?$char_traits@D@std@@@std@@QAEXXZ" PURGE="0" COMMENT="" />
    <EXPORT ORDINAL="972" NAME="??_D?$basic_ifstream@GU?$char_traits@G@std@@@std@@QAEXXZ" PURGE="0" COMMENT="" />
    <EXPORT ORDINAL="973" NAME="??_D?$basic_iostream@DU?$char_traits@D@std@@@std@@QAEXXZ" PURGE="0" COMMENT="" />
    <EXPORT ORDINAL="974" NAME="??_D?$basic_iostream@GU?$char_traits@G@std@@@std@@QAEXXZ" PURGE="0" COMMENT="" />
    <EXPORT ORDINAL="975" NAME="??_D?$basic_istream@DU?$char_traits@D@std@@@std@@QAEXXZ" PURGE="0" COMMENT="" />
    <EXPORT ORDINAL="976" NAME="??_D?$basic_istream@GU?$char_traits@G@std@@@std@@QAEXXZ" PURGE="0" COMMENT="" />
    <EXPORT ORDINAL="977" NAME="??_D?$basic_istringstream@DU?$char_traits@D@std@@V?$allocator@D@2@@std@@QAEXXZ" PURGE="0" COMMENT="" />
    <EXPORT ORDINAL="978" NAME="??_D?$basic_istringstream@GU?$char_traits@G@std@@V?$allocator@G@2@@std@@QAEXXZ" PURGE="0" COMMENT="" />
    <EXPORT ORDINAL="979" NAME="??_D?$basic_ofstream@DU?$char_traits@D@std@@@std@@QAEXXZ" PURGE="0" COMMENT="" />
    <EXPORT ORDINAL="980" NAME="??_D?$basic_ofstream@GU?$char_traits@G@std@@@std@@QAEXXZ" PURGE="0" COMMENT="" />
    <EXPORT ORDINAL="981" NAME="??_D?$basic_ostream@DU?$char_traits@D@std@@@std@@QAEXXZ" PURGE="0" COMMENT="" />
    <EXPORT ORDINAL="982" NAME="??_D?$basic_ostream@GU?$char_traits@G@std@@@std@@QAEXXZ" PURGE="0" COMMENT="" />
    <EXPORT ORDINAL="983" NAME="??_D?$basic_ostringstream@DU?$char_traits@D@std@@V?$allocator@D@2@@std@@QAEXXZ" PURGE="0" COMMENT="" />
    <EXPORT ORDINAL="984" NAME="??_D?$basic_ostringstream@GU?$char_traits@G@std@@V?$allocator@G@2@@std@@QAEXXZ" PURGE="0" COMMENT="" />
    <EXPORT ORDINAL="985" NAME="??_D?$basic_stringstream@DU?$char_traits@D@std@@V?$allocator@D@2@@std@@QAEXXZ" PURGE="0" COMMENT="" />
    <EXPORT ORDINAL="986" NAME="??_D?$basic_stringstream@GU?$char_traits@G@std@@V?$allocator@G@2@@std@@QAEXXZ" PURGE="0" COMMENT="" />
    <EXPORT ORDINAL="987" NAME="??_F?$basic_filebuf@DU?$char_traits@D@std@@@std@@QAEXXZ" PURGE="0" COMMENT="" />
    <EXPORT ORDINAL="988" NAME="??_F?$basic_filebuf@GU?$char_traits@G@std@@@std@@QAEXXZ" PURGE="0" COMMENT="" />
    <EXPORT ORDINAL="989" NAME="??_F?$basic_istringstream@DU?$char_traits@D@std@@V?$allocator@D@2@@std@@QAEXXZ" PURGE="0" COMMENT="" />
    <EXPORT ORDINAL="990" NAME="??_F?$basic_istringstream@GU?$char_traits@G@std@@V?$allocator@G@2@@std@@QAEXXZ" PURGE="0" COMMENT="" />
    <EXPORT ORDINAL="991" NAME="??_F?$basic_ostringstream@DU?$char_traits@D@std@@V?$allocator@D@2@@std@@QAEXXZ" PURGE="0" COMMENT="" />
    <EXPORT ORDINAL="992" NAME="??_F?$basic_ostringstream@GU?$char_traits@G@std@@V?$allocator@G@2@@std@@QAEXXZ" PURGE="0" COMMENT="" />
    <EXPORT ORDINAL="993" NAME="??_F?$basic_string@DU?$char_traits@D@std@@V?$allocator@D@2@@std@@QAEXXZ" PURGE="0" COMMENT="" />
    <EXPORT ORDINAL="994" NAME="??_F?$basic_string@GU?$char_traits@G@std@@V?$allocator@G@2@@std@@QAEXXZ" PURGE="0" COMMENT="" />
    <EXPORT ORDINAL="995" NAME="??_F?$basic_stringbuf@DU?$char_traits@D@std@@V?$allocator@D@2@@std@@QAEXXZ" PURGE="0" COMMENT="" />
    <EXPORT ORDINAL="996" NAME="??_F?$basic_stringbuf@GU?$char_traits@G@std@@V?$allocator@G@2@@std@@QAEXXZ" PURGE="0" COMMENT="" />
    <EXPORT ORDINAL="997" NAME="??_F?$basic_stringstream@DU?$char_traits@D@std@@V?$allocator@D@2@@std@@QAEXXZ" PURGE="0" COMMENT="" />
    <EXPORT ORDINAL="998" NAME="??_F?$basic_stringstream@GU?$char_traits@G@std@@V?$allocator@G@2@@std@@QAEXXZ" PURGE="0" COMMENT="" />
    <EXPORT ORDINAL="999" NAME="??_F?$codecvt@DDH@std@@QAEXXZ" PURGE="0" COMMENT="" />
    <EXPORT ORDINAL="1000" NAME="??_F?$codecvt@GDH@std@@QAEXXZ" PURGE="0" COMMENT="" />
    <EXPORT ORDINAL="1001" NAME="??_F?$collate@D@std@@QAEXXZ" PURGE="0" COMMENT="" />
    <EXPORT ORDINAL="1002" NAME="??_F?$collate@G@std@@QAEXXZ" PURGE="0" COMMENT="" />
    <EXPORT ORDINAL="1003" NAME="??_F?$complex@M@std@@QAEXXZ" PURGE="0" COMMENT="" />
    <EXPORT ORDINAL="1004" NAME="??_F?$complex@N@std@@QAEXXZ" PURGE="0" COMMENT="" />
    <EXPORT ORDINAL="1005" NAME="??_F?$complex@O@std@@QAEXXZ" PURGE="0" COMMENT="" />
    <EXPORT ORDINAL="1006" NAME="??_F?$ctype@D@std@@QAEXXZ" PURGE="0" COMMENT="" />
    <EXPORT ORDINAL="1007" NAME="??_F?$ctype@G@std@@QAEXXZ" PURGE="0" COMMENT="" />
    <EXPORT ORDINAL="1008" NAME="??_F?$messages@D@std@@QAEXXZ" PURGE="0" COMMENT="" />
    <EXPORT ORDINAL="1009" NAME="??_F?$messages@G@std@@QAEXXZ" PURGE="0" COMMENT="" />
    <EXPORT ORDINAL="1010" NAME="??_F?$money_get@DV?$istreambuf_iterator@DU?$char_traits@D@std@@@std@@@std@@QAEXXZ" PURGE="0" COMMENT="" />
    <EXPORT ORDINAL="1011" NAME="??_F?$money_get@GV?$istreambuf_iterator@GU?$char_traits@G@std@@@std@@@std@@QAEXXZ" PURGE="0" COMMENT="" />
    <EXPORT ORDINAL="1012" NAME="??_F?$money_put@DV?$ostreambuf_iterator@DU?$char_traits@D@std@@@std@@@std@@QAEXXZ" PURGE="0" COMMENT="" />
    <EXPORT ORDINAL="1013" NAME="??_F?$money_put@GV?$ostreambuf_iterator@GU?$char_traits@G@std@@@std@@@std@@QAEXXZ" PURGE="0" COMMENT="" />
    <EXPORT ORDINAL="1014" NAME="??_F?$moneypunct@D$00@std@@QAEXXZ" PURGE="0" COMMENT="" />
    <EXPORT ORDINAL="1015" NAME="??_F?$moneypunct@D$0A@@std@@QAEXXZ" PURGE="0" COMMENT="" />
    <EXPORT ORDINAL="1016" NAME="??_F?$moneypunct@G$00@std@@QAEXXZ" PURGE="0" COMMENT="" />
    <EXPORT ORDINAL="1017" NAME="??_F?$moneypunct@G$0A@@std@@QAEXXZ" PURGE="0" COMMENT="" />
    <EXPORT ORDINAL="1018" NAME="??_F?$num_get@DV?$istreambuf_iterator@DU?$char_traits@D@std@@@std@@@std@@QAEXXZ" PURGE="0" COMMENT="" />
    <EXPORT ORDINAL="1019" NAME="??_F?$num_get@GV?$istreambuf_iterator@GU?$char_traits@G@std@@@std@@@std@@QAEXXZ" PURGE="0" COMMENT="" />
    <EXPORT ORDINAL="1020" NAME="??_F?$num_put@DV?$ostreambuf_iterator@DU?$char_traits@D@std@@@std@@@std@@QAEXXZ" PURGE="0" COMMENT="" />
    <EXPORT ORDINAL="1021" NAME="??_F?$num_put@GV?$ostreambuf_iterator@GU?$char_traits@G@std@@@std@@@std@@QAEXXZ" PURGE="0" COMMENT="" />
    <EXPORT ORDINAL="1022" NAME="??_F?$numpunct@D@std@@QAEXXZ" PURGE="0" COMMENT="" />
    <EXPORT ORDINAL="1023" NAME="??_F?$numpunct@G@std@@QAEXXZ" PURGE="0" COMMENT="" />
    <EXPORT ORDINAL="1024" NAME="??_F?$time_get@DV?$istreambuf_iterator@DU?$char_traits@D@std@@@std@@@std@@QAEXXZ" PURGE="0" COMMENT="" />
    <EXPORT ORDINAL="1025" NAME="??_F?$time_get@GV?$istreambuf_iterator@GU?$char_traits@G@std@@@std@@@std@@QAEXXZ" PURGE="0" COMMENT="" />
    <EXPORT ORDINAL="1026" NAME="??_F?$time_put@DV?$ostreambuf_iterator@DU?$char_traits@D@std@@@std@@@std@@QAEXXZ" PURGE="0" COMMENT="" />
    <EXPORT ORDINAL="1027" NAME="??_F?$time_put@GV?$ostreambuf_iterator@GU?$char_traits@G@std@@@std@@@std@@QAEXXZ" PURGE="0" COMMENT="" />
    <EXPORT ORDINAL="1028" NAME="??_F_Locinfo@std@@QAEXXZ" PURGE="0" COMMENT="" />
    <EXPORT ORDINAL="1029" NAME="??_F_Timevec@std@@QAEXXZ" PURGE="0" COMMENT="" />
    <EXPORT ORDINAL="1030" NAME="??_Fbad_cast@std@@QAEXXZ" PURGE="0" COMMENT="" />
    <EXPORT ORDINAL="1031" NAME="??_Fbad_exception@std@@QAEXXZ" PURGE="0" COMMENT="" />
    <EXPORT ORDINAL="1032" NAME="??_Fbad_typeid@std@@QAEXXZ" PURGE="0" COMMENT="" />
    <EXPORT ORDINAL="1033" NAME="??_Fcodecvt_base@std@@QAEXXZ" PURGE="0" COMMENT="" />
    <EXPORT ORDINAL="1034" NAME="??_Fctype_base@std@@QAEXXZ" PURGE="0" COMMENT="" />
    <EXPORT ORDINAL="1035" NAME="??_Ffacet@locale@std@@QAEXXZ" PURGE="0" COMMENT="" />
    <EXPORT ORDINAL="1036" NAME="??_Fmessages_base@std@@QAEXXZ" PURGE="0" COMMENT="" />
    <EXPORT ORDINAL="1037" NAME="??_Fmoney_base@std@@QAEXXZ" PURGE="0" COMMENT="" />
    <EXPORT ORDINAL="1038" NAME="??_Ftime_base@std@@QAEXXZ" PURGE="0" COMMENT="" />
    <EXPORT ORDINAL="1039" NAME="?_Addcats@_Locinfo@std@@QAEAAV12@HPBD@Z" PURGE="8" COMMENT="" />
    <EXPORT ORDINAL="1040" NAME="?_Addfac@locale@std@@QAEAAV12@PAVfacet@12@II@Z" PURGE="12" COMMENT="" />
    <EXPORT ORDINAL="1041" NAME="?_Addstd@ios_base@std@@IAEXXZ" PURGE="0" COMMENT="" />
    <EXPORT ORDINAL="1042" NAME="?_C@?1??_Nullstr@?$basic_string@DU?$char_traits@D@std@@V?$allocator@D@2@@std@@CAPBDXZ@4DB" PURGE="-1" COMMENT="" />
    <EXPORT ORDINAL="1043" NAME="?_C@?1??_Nullstr@?$basic_string@GU?$char_traits@G@std@@V?$allocator@G@2@@std@@CAPBGXZ@4GB" PURGE="-1" COMMENT="" />
    <EXPORT ORDINAL="1044" NAME="?_Callfns@ios_base@std@@AAEXW4event@12@@Z" PURGE="4" COMMENT="" />
    <EXPORT ORDINAL="1045" NAME="?_Cl@?5???$log@M@std@@YA?AV?$complex@M@1@ABV21@@Z@4MB" PURGE="-1" COMMENT="" />
    <EXPORT ORDINAL="1046" NAME="?_Cl@?5???$log@N@std@@YA?AV?$complex@N@1@ABV21@@Z@4NB" PURGE="31147" COMMENT="" />
    <EXPORT ORDINAL="1047" NAME="?_Cl@?5???$log@O@std@@YA?AV?$complex@O@1@ABV21@@Z@4OB" PURGE="31147" COMMENT="" />
    <EXPORT ORDINAL="1048" NAME="?_Clocptr@_Locimp@locale@std@@0PAV123@A" PURGE="-1" COMMENT="" />
    <EXPORT ORDINAL="1049" NAME="?_Cltab@?$ctype@D@std@@0PBFB" PURGE="-1" COMMENT="" />
    <EXPORT ORDINAL="1050" NAME="?_Copy@?$basic_string@DU?$char_traits@D@std@@V?$allocator@D@2@@std@@AAEXI@Z" PURGE="4" COMMENT="" />
    <EXPORT ORDINAL="1051" NAME="?_Copy@?$basic_string@GU?$char_traits@G@std@@V?$allocator@G@2@@std@@AAEXI@Z" PURGE="4" COMMENT="" />
    <EXPORT ORDINAL="1052" NAME="?_Cosh@?$_Ctr@M@std@@SAMMM@Z" PURGE="0" COMMENT="" />
    <EXPORT ORDINAL="1053" NAME="?_Cosh@?$_Ctr@N@std@@SANNN@Z" PURGE="0" COMMENT="" />
    <EXPORT ORDINAL="1054" NAME="?_Cosh@?$_Ctr@O@std@@SAOOO@Z" PURGE="0" COMMENT="" />
    <EXPORT ORDINAL="1055" NAME="?_Decref@facet@locale@std@@QAEPAV123@XZ" PURGE="0" COMMENT="" />
    <EXPORT ORDINAL="1056" NAME="?_Doraise@bad_alloc@std@@MBEXXZ" PURGE="-1" COMMENT="" />
    <EXPORT ORDINAL="1057" NAME="?_Doraise@bad_cast@std@@MBEXXZ" PURGE="-1" COMMENT="" />
    <EXPORT ORDINAL="1058" NAME="?_Doraise@bad_exception@std@@MBEXXZ" PURGE="-1" COMMENT="" />
    <EXPORT ORDINAL="1059" NAME="?_Doraise@bad_typeid@std@@MBEXXZ" PURGE="-1" COMMENT="" />
    <EXPORT ORDINAL="1060" NAME="?_Doraise@domain_error@std@@MBEXXZ" PURGE="-1" COMMENT="" />
    <EXPORT ORDINAL="1061" NAME="?_Doraise@length_error@std@@MBEXXZ" PURGE="-1" COMMENT="" />
    <EXPORT ORDINAL="1062" NAME="?_Doraise@logic_error@std@@MBEXXZ" PURGE="-1" COMMENT="" />
    <EXPORT ORDINAL="1063" NAME="?_Doraise@out_of_range@std@@MBEXXZ" PURGE="-1" COMMENT="" />
    <EXPORT ORDINAL="1064" NAME="?_Doraise@overflow_error@std@@MBEXXZ" PURGE="-1" COMMENT="" />
    <EXPORT ORDINAL="1065" NAME="?_Doraise@range_error@std@@MBEXXZ" PURGE="-1" COMMENT="" />
    <EXPORT ORDINAL="1066" NAME="?_Doraise@runtime_error@std@@MBEXXZ" PURGE="-1" COMMENT="" />
    <EXPORT ORDINAL="1067" NAME="?_Doraise@underflow_error@std@@MBEXXZ" PURGE="-1" COMMENT="" />
    <EXPORT ORDINAL="1068" NAME="?_Eos@?$basic_string@DU?$char_traits@D@std@@V?$allocator@D@2@@std@@AAEXI@Z" PURGE="4" COMMENT="" />
    <EXPORT ORDINAL="1069" NAME="?_Eos@?$basic_string@GU?$char_traits@G@std@@V?$allocator@G@2@@std@@AAEXI@Z" PURGE="4" COMMENT="" />
    <EXPORT ORDINAL="1070" NAME="?_Exp@?$_Ctr@M@std@@SAFPAMMF@Z" PURGE="0" COMMENT="" />
    <EXPORT ORDINAL="1071" NAME="?_Exp@?$_Ctr@N@std@@SAFPANNF@Z" PURGE="0" COMMENT="" />
    <EXPORT ORDINAL="1072" NAME="?_Exp@?$_Ctr@O@std@@SAFPAOOF@Z" PURGE="0" COMMENT="" />
    <EXPORT ORDINAL="1073" NAME="??$_Fabs@M@std@@YAMABV?$complex@M@0@PAH@Z" PURGE="0" COMMENT="" />
    <EXPORT ORDINAL="1074" NAME="??$_Fabs@N@std@@YANABV?$complex@N@0@PAH@Z" PURGE="0" COMMENT="" />
    <EXPORT ORDINAL="1075" NAME="??$_Fabs@O@std@@YAOABV?$complex@O@0@PAH@Z" PURGE="0" COMMENT="" />
    <EXPORT ORDINAL="1076" NAME="?_Ffmt@?$num_put@DV?$ostreambuf_iterator@DU?$char_traits@D@std@@@std@@@std@@KAPADPADDH@Z" PURGE="0" COMMENT="" />
    <EXPORT ORDINAL="1077" NAME="?_Ffmt@?$num_put@GV?$ostreambuf_iterator@GU?$char_traits@G@std@@@std@@@std@@KAPADPADDH@Z" PURGE="0" COMMENT="" />
    <EXPORT ORDINAL="1078" NAME="?_Findarr@ios_base@std@@AAEAAU_Iosarray@12@H@Z" PURGE="4" COMMENT="" />
    <EXPORT ORDINAL="1079" NAME="?_Fput@?$num_put@DV?$ostreambuf_iterator@DU?$char_traits@D@std@@@std@@@std@@KA?AV?$ostreambuf_iterator@DU?$char_traits@D@std@@@2@V32@AAVios_base@2@DPBDII@Z" PURGE="0" COMMENT="" />
    <EXPORT ORDINAL="1080" NAME="?_Fput@?$num_put@GV?$ostreambuf_iterator@GU?$char_traits@G@std@@@std@@@std@@KA?AV?$ostreambuf_iterator@GU?$char_traits@G@std@@@2@V32@AAVios_base@2@GPBDII@Z" PURGE="0" COMMENT="" />
    <EXPORT ORDINAL="1081" NAME="?_Fpz@std@@3_JB" PURGE="-1" COMMENT="" />
    <EXPORT ORDINAL="1082" NAME="?_Freeze@?$basic_string@DU?$char_traits@D@std@@V?$allocator@D@2@@std@@AAEXXZ" PURGE="0" COMMENT="" />
    <EXPORT ORDINAL="1083" NAME="?_Freeze@?$basic_string@GU?$char_traits@G@std@@V?$allocator@G@2@@std@@AAEXXZ" PURGE="0" COMMENT="" />
    <EXPORT ORDINAL="1084" NAME="?_Getcat@?$_Mpunct@D@std@@SAIXZ" PURGE="0" COMMENT="" />
    <EXPORT ORDINAL="1085" NAME="?_Getcat@?$_Mpunct@G@std@@SAIXZ" PURGE="0" COMMENT="" />
    <EXPORT ORDINAL="1086" NAME="?_Getcat@?$codecvt@DDH@std@@SAIXZ" PURGE="0" COMMENT="" />
    <EXPORT ORDINAL="1087" NAME="?_Getcat@?$codecvt@GDH@std@@SAIXZ" PURGE="0" COMMENT="" />
    <EXPORT ORDINAL="1088" NAME="?_Getcat@?$collate@D@std@@SAIXZ" PURGE="0" COMMENT="" />
    <EXPORT ORDINAL="1089" NAME="?_Getcat@?$collate@G@std@@SAIXZ" PURGE="0" COMMENT="" />
    <EXPORT ORDINAL="1090" NAME="?_Getcat@?$ctype@D@std@@SAIXZ" PURGE="0" COMMENT="" />
    <EXPORT ORDINAL="1091" NAME="?_Getcat@?$ctype@G@std@@SAIXZ" PURGE="0" COMMENT="" />
    <EXPORT ORDINAL="1092" NAME="?_Getcat@?$messages@D@std@@SAIXZ" PURGE="0" COMMENT="" />
    <EXPORT ORDINAL="1093" NAME="?_Getcat@?$messages@G@std@@SAIXZ" PURGE="0" COMMENT="" />
    <EXPORT ORDINAL="1094" NAME="?_Getcat@?$money_get@DV?$istreambuf_iterator@DU?$char_traits@D@std@@@std@@@std@@SAIXZ" PURGE="0" COMMENT="" />
    <EXPORT ORDINAL="1095" NAME="?_Getcat@?$money_get@GV?$istreambuf_iterator@GU?$char_traits@G@std@@@std@@@std@@SAIXZ" PURGE="0" COMMENT="" />
    <EXPORT ORDINAL="1096" NAME="?_Getcat@?$money_put@DV?$ostreambuf_iterator@DU?$char_traits@D@std@@@std@@@std@@SAIXZ" PURGE="0" COMMENT="" />
    <EXPORT ORDINAL="1097" NAME="?_Getcat@?$money_put@GV?$ostreambuf_iterator@GU?$char_traits@G@std@@@std@@@std@@SAIXZ" PURGE="0" COMMENT="" />
    <EXPORT ORDINAL="1098" NAME="?_Getcat@?$moneypunct@D$00@std@@SAIXZ" PURGE="0" COMMENT="" />
    <EXPORT ORDINAL="1099" NAME="?_Getcat@?$moneypunct@D$0A@@std@@SAIXZ" PURGE="0" COMMENT="" />
    <EXPORT ORDINAL="1100" NAME="?_Getcat@?$moneypunct@G$00@std@@SAIXZ" PURGE="0" COMMENT="" />
    <EXPORT ORDINAL="1101" NAME="?_Getcat@?$moneypunct@G$0A@@std@@SAIXZ" PURGE="0" COMMENT="" />
    <EXPORT ORDINAL="1102" NAME="?_Getcat@?$num_get@DV?$istreambuf_iterator@DU?$char_traits@D@std@@@std@@@std@@SAIXZ" PURGE="0" COMMENT="" />
    <EXPORT ORDINAL="1103" NAME="?_Getcat@?$num_get@GV?$istreambuf_iterator@GU?$char_traits@G@std@@@std@@@std@@SAIXZ" PURGE="0" COMMENT="" />
    <EXPORT ORDINAL="1104" NAME="?_Getcat@?$num_put@DV?$ostreambuf_iterator@DU?$char_traits@D@std@@@std@@@std@@SAIXZ" PURGE="0" COMMENT="" />
    <EXPORT ORDINAL="1105" NAME="?_Getcat@?$num_put@GV?$ostreambuf_iterator@GU?$char_traits@G@std@@@std@@@std@@SAIXZ" PURGE="0" COMMENT="" />
    <EXPORT ORDINAL="1106" NAME="?_Getcat@?$numpunct@D@std@@SAIXZ" PURGE="0" COMMENT="" />
    <EXPORT ORDINAL="1107" NAME="?_Getcat@?$numpunct@G@std@@SAIXZ" PURGE="0" COMMENT="" />
    <EXPORT ORDINAL="1108" NAME="?_Getcat@?$time_get@DV?$istreambuf_iterator@DU?$char_traits@D@std@@@std@@@std@@SAIXZ" PURGE="0" COMMENT="" />
    <EXPORT ORDINAL="1109" NAME="?_Getcat@?$time_get@GV?$istreambuf_iterator@GU?$char_traits@G@std@@@std@@@std@@SAIXZ" PURGE="0" COMMENT="" />
    <EXPORT ORDINAL="1110" NAME="?_Getcat@?$time_put@DV?$ostreambuf_iterator@DU?$char_traits@D@std@@@std@@@std@@SAIXZ" PURGE="0" COMMENT="" />
    <EXPORT ORDINAL="1111" NAME="?_Getcat@?$time_put@GV?$ostreambuf_iterator@GU?$char_traits@G@std@@@std@@@std@@SAIXZ" PURGE="0" COMMENT="" />
    <EXPORT ORDINAL="1112" NAME="?_Getcat@facet@locale@std@@SAIXZ" PURGE="0" COMMENT="" />
    <EXPORT ORDINAL="1113" NAME="?_Getcoll@_Locinfo@std@@QBE?AU_Collvec@@XZ" PURGE="4" COMMENT="" />
    <EXPORT ORDINAL="1114" NAME="?_Getctype@_Locinfo@std@@QBE?AU_Ctypevec@@XZ" PURGE="4" COMMENT="" />
    <EXPORT ORDINAL="1115" NAME="?_Getcvt@_Locinfo@std@@QBE?AU_Cvtvec@@XZ" PURGE="4" COMMENT="" />
    <EXPORT ORDINAL="1116" NAME="?_Getdays@_Locinfo@std@@QBEPBDXZ" PURGE="0" COMMENT="" />
    <EXPORT ORDINAL="1117" NAME="?_Getfacet@locale@std@@QBEPBVfacet@12@I_N@Z" PURGE="8" COMMENT="" />
    <EXPORT ORDINAL="1118" NAME="?_Getfalse@_Locinfo@std@@QBEPBDXZ" PURGE="0" COMMENT="" />
    <EXPORT ORDINAL="1119" NAME="?_Getffld@?$num_get@DV?$istreambuf_iterator@DU?$char_traits@D@std@@@std@@@std@@CAHPADAAV?$istreambuf_iterator@DU?$char_traits@D@std@@@2@1ABVlocale@2@@Z" PURGE="0" COMMENT="" />
    <EXPORT ORDINAL="1120" NAME="?_Getffld@?$num_get@GV?$istreambuf_iterator@GU?$char_traits@G@std@@@std@@@std@@CAHPADAAV?$istreambuf_iterator@GU?$char_traits@G@std@@@2@1ABVlocale@2@@Z" PURGE="0" COMMENT="" />
    <EXPORT ORDINAL="1121" NAME="?_Getifld@?$num_get@DV?$istreambuf_iterator@DU?$char_traits@D@std@@@std@@@std@@CAHPADAAV?$istreambuf_iterator@DU?$char_traits@D@std@@@2@1HABVlocale@2@@Z" PURGE="0" COMMENT="" />
    <EXPORT ORDINAL="1122" NAME="?_Getifld@?$num_get@GV?$istreambuf_iterator@GU?$char_traits@G@std@@@std@@@std@@CAHPADAAV?$istreambuf_iterator@GU?$char_traits@G@std@@@2@1HABVlocale@2@@Z" PURGE="0" COMMENT="" />
    <EXPORT ORDINAL="1123" NAME="?_Getint@?$time_get@DV?$istreambuf_iterator@DU?$char_traits@D@std@@@std@@@std@@CAHAAV?$istreambuf_iterator@DU?$char_traits@D@std@@@2@0HHAAH@Z" PURGE="0" COMMENT="" />
    <EXPORT ORDINAL="1124" NAME="?_Getint@?$time_get@GV?$istreambuf_iterator@GU?$char_traits@G@std@@@std@@@std@@CAHAAV?$istreambuf_iterator@GU?$char_traits@G@std@@@2@0HHAAH@Z" PURGE="0" COMMENT="" />
    <EXPORT ORDINAL="1125" NAME="?_Getlconv@_Locinfo@std@@QBEPBUlconv@@XZ" PURGE="-1" COMMENT="" />
    <EXPORT ORDINAL="1126" NAME="?_Getmfld@?$money_get@DV?$istreambuf_iterator@DU?$char_traits@D@std@@@std@@@std@@ABE?AV?$basic_string@DU?$char_traits@D@std@@V?$allocator@D@2@@2@AAV?$istreambuf_iterator@DU?$char_traits@D@std@@@2@0_NAAVios_base@2@@Z" PURGE="20" COMMENT="" />
    <EXPORT ORDINAL="1127" NAME="?_Getmfld@?$money_get@GV?$istreambuf_iterator@GU?$char_traits@G@std@@@std@@@std@@ABE?AV?$basic_string@GU?$char_traits@G@std@@V?$allocator@G@2@@2@AAV?$istreambuf_iterator@GU?$char_traits@G@std@@@2@0_NAAVios_base@2@@Z" PURGE="20" COMMENT="" />
    <EXPORT ORDINAL="1128" NAME="?_Getmonths@_Locinfo@std@@QBEPBDXZ" PURGE="0" COMMENT="" />
    <EXPORT ORDINAL="1129" NAME="?_Getname@_Locinfo@std@@QBE?AV?$basic_string@DU?$char_traits@D@std@@V?$allocator@D@2@@2@XZ" PURGE="4" COMMENT="" />
    <EXPORT ORDINAL="1130" NAME="?_Getno@_Locinfo@std@@QBEPBDXZ" PURGE="0" COMMENT="" />
    <EXPORT ORDINAL="1131" NAME="?_Getptr@_Timevec@std@@QBEPAXXZ" PURGE="0" COMMENT="" />
    <EXPORT ORDINAL="1132" NAME="?_Gettnames@_Locinfo@std@@QBE?AV_Timevec@2@XZ" PURGE="4" COMMENT="" />
    <EXPORT ORDINAL="1133" NAME="?_Gettrue@_Locinfo@std@@QBEPBDXZ" PURGE="0" COMMENT="" />
    <EXPORT ORDINAL="1134" NAME="?_Getyes@_Locinfo@std@@QBEPBDXZ" PURGE="0" COMMENT="" />
    <EXPORT ORDINAL="1135" NAME="?_Global@_Locimp@locale@std@@0PAV123@A" PURGE="-1" COMMENT="" />
    <EXPORT ORDINAL="1136" NAME="?_Gndec@?$basic_streambuf@DU?$char_traits@D@std@@@std@@IAEPADXZ" PURGE="0" COMMENT="" />
    <EXPORT ORDINAL="1137" NAME="?_Gndec@?$basic_streambuf@GU?$char_traits@G@std@@@std@@IAEPAGXZ" PURGE="0" COMMENT="" />
    <EXPORT ORDINAL="1138" NAME="?_Gninc@?$basic_streambuf@DU?$char_traits@D@std@@@std@@IAEPADXZ" PURGE="0" COMMENT="" />
    <EXPORT ORDINAL="1139" NAME="?_Gninc@?$basic_streambuf@GU?$char_traits@G@std@@@std@@IAEPAGXZ" PURGE="0" COMMENT="" />
    <EXPORT ORDINAL="1140" NAME="?_Grow@?$basic_string@DU?$char_traits@D@std@@V?$allocator@D@2@@std@@AAE_NI_N@Z" PURGE="8" COMMENT="" />
    <EXPORT ORDINAL="1141" NAME="?_Grow@?$basic_string@GU?$char_traits@G@std@@V?$allocator@G@2@@std@@AAE_NI_N@Z" PURGE="8" COMMENT="" />
    <EXPORT ORDINAL="1142" NAME="?_Id_cnt@id@locale@std@@0HA" PURGE="-1" COMMENT="" />
    <EXPORT ORDINAL="1143" NAME="?_Ifmt@?$num_put@DV?$ostreambuf_iterator@DU?$char_traits@D@std@@@std@@@std@@KAPADPADDH@Z" PURGE="0" COMMENT="" />
    <EXPORT ORDINAL="1144" NAME="?_Ifmt@?$num_put@GV?$ostreambuf_iterator@GU?$char_traits@G@std@@@std@@@std@@KAPADPADDH@Z" PURGE="0" COMMENT="" />
    <EXPORT ORDINAL="1145" NAME="?_Incref@facet@locale@std@@QAEXXZ" PURGE="0" COMMENT="" />
    <EXPORT ORDINAL="1146" NAME="?_Index@ios_base@std@@0HA" PURGE="-1" COMMENT="" />
    <EXPORT ORDINAL="1147" NAME="?_Infv@?$_Ctr@M@std@@SAMM@Z" PURGE="0" COMMENT="" />
    <EXPORT ORDINAL="1148" NAME="?_Infv@?$_Ctr@N@std@@SANN@Z" PURGE="0" COMMENT="" />
    <EXPORT ORDINAL="1149" NAME="?_Infv@?$_Ctr@O@std@@SAOO@Z" PURGE="0" COMMENT="" />
    <EXPORT ORDINAL="1150" NAME="?_Init@?$_Mpunct@D@std@@IAEXABV_Locinfo@2@@Z" PURGE="4" COMMENT="" />
    <EXPORT ORDINAL="1151" NAME="?_Init@?$_Mpunct@G@std@@IAEXABV_Locinfo@2@@Z" PURGE="4" COMMENT="" />
    <EXPORT ORDINAL="1152" NAME="?_Init@?$basic_filebuf@DU?$char_traits@D@std@@@std@@IAEXPAU_iobuf@@W4_Initfl@12@@Z" PURGE="8" COMMENT="" />
    <EXPORT ORDINAL="1153" NAME="?_Init@?$basic_filebuf@GU?$char_traits@G@std@@@std@@IAEXPAU_iobuf@@W4_Initfl@12@@Z" PURGE="8" COMMENT="" />
    <EXPORT ORDINAL="1154" NAME="?_Init@?$basic_streambuf@DU?$char_traits@D@std@@@std@@IAEXPAPAD0PAH001@Z" PURGE="24" COMMENT="" />
    <EXPORT ORDINAL="1155" NAME="?_Init@?$basic_streambuf@DU?$char_traits@D@std@@@std@@IAEXXZ" PURGE="0" COMMENT="" />
    <EXPORT ORDINAL="1156" NAME="?_Init@?$basic_streambuf@GU?$char_traits@G@std@@@std@@IAEXPAPAG0PAH001@Z" PURGE="24" COMMENT="" />
    <EXPORT ORDINAL="1157" NAME="?_Init@?$basic_streambuf@GU?$char_traits@G@std@@@std@@IAEXXZ" PURGE="0" COMMENT="" />
    <EXPORT ORDINAL="1158" NAME="?_Init@?$basic_stringbuf@DU?$char_traits@D@std@@V?$allocator@D@2@@std@@IAEXPBDIH@Z" PURGE="12" COMMENT="" />
    <EXPORT ORDINAL="1159" NAME="?_Init@?$basic_stringbuf@GU?$char_traits@G@std@@V?$allocator@G@2@@std@@IAEXPBGIH@Z" PURGE="12" COMMENT="" />
    <EXPORT ORDINAL="1160" NAME="?_Init@?$codecvt@DDH@std@@IAEXABV_Locinfo@2@@Z" PURGE="4" COMMENT="" />
    <EXPORT ORDINAL="1161" NAME="?_Init@?$codecvt@GDH@std@@IAEXABV_Locinfo@2@@Z" PURGE="4" COMMENT="" />
    <EXPORT ORDINAL="1162" NAME="?_Init@?$collate@D@std@@IAEXABV_Locinfo@2@@Z" PURGE="4" COMMENT="" />
    <EXPORT ORDINAL="1163" NAME="?_Init@?$collate@G@std@@IAEXABV_Locinfo@2@@Z" PURGE="4" COMMENT="" />
    <EXPORT ORDINAL="1164" NAME="?_Init@?$ctype@D@std@@IAEXABV_Locinfo@2@@Z" PURGE="4" COMMENT="" />
    <EXPORT ORDINAL="1165" NAME="?_Init@?$ctype@G@std@@IAEXABV_Locinfo@2@@Z" PURGE="4" COMMENT="" />
    <EXPORT ORDINAL="1166" NAME="?_Init@?$messages@D@std@@IAEXABV_Locinfo@2@@Z" PURGE="4" COMMENT="" />
    <EXPORT ORDINAL="1167" NAME="?_Init@?$messages@G@std@@IAEXABV_Locinfo@2@@Z" PURGE="4" COMMENT="" />
    <EXPORT ORDINAL="1168" NAME="?_Init@?$money_get@DV?$istreambuf_iterator@DU?$char_traits@D@std@@@std@@@std@@IAEXABV_Locinfo@2@@Z" PURGE="4" COMMENT="" />
    <EXPORT ORDINAL="1169" NAME="?_Init@?$money_get@GV?$istreambuf_iterator@GU?$char_traits@G@std@@@std@@@std@@IAEXABV_Locinfo@2@@Z" PURGE="4" COMMENT="" />
    <EXPORT ORDINAL="1170" NAME="?_Init@?$money_put@DV?$ostreambuf_iterator@DU?$char_traits@D@std@@@std@@@std@@IAEXABV_Locinfo@2@@Z" PURGE="4" COMMENT="" />
    <EXPORT ORDINAL="1171" NAME="?_Init@?$money_put@GV?$ostreambuf_iterator@GU?$char_traits@G@std@@@std@@@std@@IAEXABV_Locinfo@2@@Z" PURGE="4" COMMENT="" />
    <EXPORT ORDINAL="1172" NAME="?_Init@?$num_get@DV?$istreambuf_iterator@DU?$char_traits@D@std@@@std@@@std@@IAEXABV_Locinfo@2@@Z" PURGE="4" COMMENT="" />
    <EXPORT ORDINAL="1173" NAME="?_Init@?$num_get@GV?$istreambuf_iterator@GU?$char_traits@G@std@@@std@@@std@@IAEXABV_Locinfo@2@@Z" PURGE="4" COMMENT="" />
    <EXPORT ORDINAL="1174" NAME="?_Init@?$num_put@DV?$ostreambuf_iterator@DU?$char_traits@D@std@@@std@@@std@@IAEXABV_Locinfo@2@@Z" PURGE="4" COMMENT="" />
    <EXPORT ORDINAL="1175" NAME="?_Init@?$num_put@GV?$ostreambuf_iterator@GU?$char_traits@G@std@@@std@@@std@@IAEXABV_Locinfo@2@@Z" PURGE="4" COMMENT="" />
    <EXPORT ORDINAL="1176" NAME="?_Init@?$numpunct@D@std@@IAEXABV_Locinfo@2@@Z" PURGE="4" COMMENT="" />
    <EXPORT ORDINAL="1177" NAME="?_Init@?$numpunct@G@std@@IAEXABV_Locinfo@2@@Z" PURGE="4" COMMENT="" />
    <EXPORT ORDINAL="1178" NAME="?_Init@?$time_get@DV?$istreambuf_iterator@DU?$char_traits@D@std@@@std@@@std@@IAEXABV_Locinfo@2@@Z" PURGE="4" COMMENT="" />
    <EXPORT ORDINAL="1179" NAME="?_Init@?$time_get@GV?$istreambuf_iterator@GU?$char_traits@G@std@@@std@@@std@@IAEXABV_Locinfo@2@@Z" PURGE="4" COMMENT="" />
    <EXPORT ORDINAL="1180" NAME="?_Init@?$time_put@DV?$ostreambuf_iterator@DU?$char_traits@D@std@@@std@@@std@@IAEXABV_Locinfo@2@@Z" PURGE="4" COMMENT="" />
    <EXPORT ORDINAL="1181" NAME="?_Init@?$time_put@GV?$ostreambuf_iterator@GU?$char_traits@G@std@@@std@@@std@@IAEXABV_Locinfo@2@@Z" PURGE="4" COMMENT="" />
    <EXPORT ORDINAL="1182" NAME="?_Init@ios_base@std@@IAEXXZ" PURGE="0" COMMENT="" />
    <EXPORT ORDINAL="1183" NAME="?_Init@locale@std@@CAPAV_Locimp@12@XZ" PURGE="0" COMMENT="" />
    <EXPORT ORDINAL="1184" NAME="?_Init@strstreambuf@std@@IAEXHPAD0H@Z" PURGE="16" COMMENT="" />
    <EXPORT ORDINAL="1185" NAME="?_Init_cnt@Init@ios_base@std@@0HA" PURGE="-1" COMMENT="" />
    <EXPORT ORDINAL="1186" NAME="?_Init_cnt@_Winit@std@@0HA" PURGE="-1" COMMENT="" />
    <EXPORT ORDINAL="1187" NAME="?_Initcvt@?$basic_filebuf@DU?$char_traits@D@std@@@std@@IAEXXZ" PURGE="0" COMMENT="" />
    <EXPORT ORDINAL="1188" NAME="?_Initcvt@?$basic_filebuf@GU?$char_traits@G@std@@@std@@IAEXXZ" PURGE="0" COMMENT="" />
    <EXPORT ORDINAL="1189" NAME="?_Iput@?$num_put@DV?$ostreambuf_iterator@DU?$char_traits@D@std@@@std@@@std@@KA?AV?$ostreambuf_iterator@DU?$char_traits@D@std@@@2@V32@AAVios_base@2@DPADI@Z" PURGE="0" COMMENT="" />
    <EXPORT ORDINAL="1190" NAME="?_Iput@?$num_put@GV?$ostreambuf_iterator@GU?$char_traits@G@std@@@std@@@std@@KA?AV?$ostreambuf_iterator@GU?$char_traits@G@std@@@2@V32@AAVios_base@2@GPADI@Z" PURGE="0" COMMENT="" />
    <EXPORT ORDINAL="1191" NAME="?_Iscloc@locale@std@@QBE_NXZ" PURGE="0" COMMENT="" />
    <EXPORT ORDINAL="1192" NAME="?_Isinf@?$_Ctr@M@std@@SA_NM@Z" PURGE="0" COMMENT="" />
    <EXPORT ORDINAL="1193" NAME="?_Isinf@?$_Ctr@N@std@@SA_NN@Z" PURGE="0" COMMENT="" />
    <EXPORT ORDINAL="1194" NAME="?_Isinf@?$_Ctr@O@std@@SA_NO@Z" PURGE="0" COMMENT="" />
    <EXPORT ORDINAL="1195" NAME="?_Isnan@?$_Ctr@M@std@@SA_NM@Z" PURGE="0" COMMENT="" />
    <EXPORT ORDINAL="1196" NAME="?_Isnan@?$_Ctr@N@std@@SA_NN@Z" PURGE="0" COMMENT="" />
    <EXPORT ORDINAL="1197" NAME="?_Isnan@?$_Ctr@O@std@@SA_NO@Z" PURGE="0" COMMENT="" />
    <EXPORT ORDINAL="1198" NAME="?_Makpat@?$_Mpunct@D@std@@AAEXAAUpattern@money_base@2@DDD@Z" PURGE="16" COMMENT="" />
    <EXPORT ORDINAL="1199" NAME="?_Makpat@?$_Mpunct@G@std@@AAEXAAUpattern@money_base@2@DDD@Z" PURGE="16" COMMENT="" />
    <EXPORT ORDINAL="1200" NAME="?_Mode@?$basic_stringbuf@DU?$char_traits@D@std@@V?$allocator@D@2@@std@@AAEHH@Z" PURGE="4" COMMENT="" />
    <EXPORT ORDINAL="1201" NAME="?_Mode@?$basic_stringbuf@GU?$char_traits@G@std@@V?$allocator@G@2@@std@@AAEHH@Z" PURGE="4" COMMENT="" />
    <EXPORT ORDINAL="1202" NAME="?_Nanv@?$_Ctr@M@std@@SAMM@Z" PURGE="0" COMMENT="" />
    <EXPORT ORDINAL="1203" NAME="?_Nanv@?$_Ctr@N@std@@SANN@Z" PURGE="0" COMMENT="" />
    <EXPORT ORDINAL="1204" NAME="?_Nanv@?$_Ctr@O@std@@SAOO@Z" PURGE="0" COMMENT="" />
    <EXPORT ORDINAL="1205" NAME="?_Nomemory@std@@YAXXZ" PURGE="-1" COMMENT="" />
    <EXPORT ORDINAL="1206" NAME="?_Nullstr@?$basic_string@DU?$char_traits@D@std@@V?$allocator@D@2@@std@@CAPBDXZ" PURGE="0" COMMENT="" />
    <EXPORT ORDINAL="1207" NAME="?_Nullstr@?$basic_string@GU?$char_traits@G@std@@V?$allocator@G@2@@std@@CAPBGXZ" PURGE="0" COMMENT="" />
    <EXPORT ORDINAL="1208" NAME="?_Pdif@?$basic_string@DU?$char_traits@D@std@@V?$allocator@D@2@@std@@CAIPBD0@Z" PURGE="0" COMMENT="" />
    <EXPORT ORDINAL="1209" NAME="?_Pdif@?$basic_string@GU?$char_traits@G@std@@V?$allocator@G@2@@std@@CAIPBG0@Z" PURGE="0" COMMENT="" />
    <EXPORT ORDINAL="1210" NAME="?_Pninc@?$basic_streambuf@DU?$char_traits@D@std@@@std@@IAEPADXZ" PURGE="0" COMMENT="" />
    <EXPORT ORDINAL="1211" NAME="?_Pninc@?$basic_streambuf@GU?$char_traits@G@std@@@std@@IAEPAGXZ" PURGE="0" COMMENT="" />
    <EXPORT ORDINAL="1212" NAME="?_Psum@?$basic_string@DU?$char_traits@D@std@@V?$allocator@D@2@@std@@CAPADPADI@Z" PURGE="0" COMMENT="" />
    <EXPORT ORDINAL="1213" NAME="?_Psum@?$basic_string@DU?$char_traits@D@std@@V?$allocator@D@2@@std@@CAPBDPBDI@Z" PURGE="0" COMMENT="" />
    <EXPORT ORDINAL="1214" NAME="?_Psum@?$basic_string@GU?$char_traits@G@std@@V?$allocator@G@2@@std@@CAPAGPAGI@Z" PURGE="0" COMMENT="" />
    <EXPORT ORDINAL="1215" NAME="?_Psum@?$basic_string@GU?$char_traits@G@std@@V?$allocator@G@2@@std@@CAPBGPBGI@Z" PURGE="0" COMMENT="" />
    <EXPORT ORDINAL="1216" NAME="?_Put@?$money_put@DV?$ostreambuf_iterator@DU?$char_traits@D@std@@@std@@@std@@CA?AV?$ostreambuf_iterator@DU?$char_traits@D@std@@@2@V32@PBDI@Z" PURGE="0" COMMENT="" />
    <EXPORT ORDINAL="1217" NAME="?_Put@?$money_put@GV?$ostreambuf_iterator@GU?$char_traits@G@std@@@std@@@std@@CA?AV?$ostreambuf_iterator@GU?$char_traits@G@std@@@2@V32@PBGI@Z" PURGE="0" COMMENT="" />
    <EXPORT ORDINAL="1218" NAME="?_Put@?$num_put@DV?$ostreambuf_iterator@DU?$char_traits@D@std@@@std@@@std@@KA?AV?$ostreambuf_iterator@DU?$char_traits@D@std@@@2@V32@PBDI@Z" PURGE="0" COMMENT="" />
    <EXPORT ORDINAL="1219" NAME="?_Put@?$num_put@GV?$ostreambuf_iterator@GU?$char_traits@G@std@@@std@@@std@@KA?AV?$ostreambuf_iterator@GU?$char_traits@G@std@@@2@V32@PBGI@Z" PURGE="0" COMMENT="" />
    <EXPORT ORDINAL="1220" NAME="?_Putc@?$num_put@DV?$ostreambuf_iterator@DU?$char_traits@D@std@@@std@@@std@@KA?AV?$ostreambuf_iterator@DU?$char_traits@D@std@@@2@V32@PBDI@Z" PURGE="0" COMMENT="" />
    <EXPORT ORDINAL="1221" NAME="?_Putc@?$num_put@GV?$ostreambuf_iterator@GU?$char_traits@G@std@@@std@@@std@@KA?AV?$ostreambuf_iterator@GU?$char_traits@G@std@@@2@V32@PBDI@Z" PURGE="0" COMMENT="" />
    <EXPORT ORDINAL="1222" NAME="?_Putmfld@?$money_put@DV?$ostreambuf_iterator@DU?$char_traits@D@std@@@std@@@std@@ABE?AV?$ostreambuf_iterator@DU?$char_traits@D@std@@@2@V32@_NAAVios_base@2@D1V?$basic_string@DU?$char_traits@D@std@@V?$allocator@D@2@@2@@Z" PURGE="44" COMMENT="" />
    <EXPORT ORDINAL="1223" NAME="?_Putmfld@?$money_put@GV?$ostreambuf_iterator@GU?$char_traits@G@std@@@std@@@std@@ABE?AV?$ostreambuf_iterator@GU?$char_traits@G@std@@@2@V32@_NAAVios_base@2@G1V?$basic_string@GU?$char_traits@G@std@@V?$allocator@G@2@@2@@Z" PURGE="44" COMMENT="" />
    <EXPORT ORDINAL="1224" NAME="?_R2@?BN@???$_Fabs@M@std@@YAMABV?$complex@M@1@PAH@Z@4MB" PURGE="-1" COMMENT="" />
    <EXPORT ORDINAL="1225" NAME="?_R2@?BN@???$_Fabs@N@std@@YANABV?$complex@N@1@PAH@Z@4NB" PURGE="31147" COMMENT="" />
    <EXPORT ORDINAL="1226" NAME="?_R2@?BN@???$_Fabs@O@std@@YAOABV?$complex@O@1@PAH@Z@4OB" PURGE="31147" COMMENT="" />
    <EXPORT ORDINAL="1227" NAME="?_Refcnt@?$basic_string@DU?$char_traits@D@std@@V?$allocator@D@2@@std@@AAEAAEPBD@Z" PURGE="4" COMMENT="" />
    <EXPORT ORDINAL="1228" NAME="?_Refcnt@?$basic_string@GU?$char_traits@G@std@@V?$allocator@G@2@@std@@AAEAAEPBG@Z" PURGE="4" COMMENT="" />
    <EXPORT ORDINAL="1229" NAME="?_Rep@?$money_put@DV?$ostreambuf_iterator@DU?$char_traits@D@std@@@std@@@std@@CA?AV?$ostreambuf_iterator@DU?$char_traits@D@std@@@2@V32@DI@Z" PURGE="0" COMMENT="" />
    <EXPORT ORDINAL="1230" NAME="?_Rep@?$money_put@GV?$ostreambuf_iterator@GU?$char_traits@G@std@@@std@@@std@@CA?AV?$ostreambuf_iterator@GU?$char_traits@G@std@@@2@V32@GI@Z" PURGE="0" COMMENT="" />
    <EXPORT ORDINAL="1231" NAME="?_Rep@?$num_put@DV?$ostreambuf_iterator@DU?$char_traits@D@std@@@std@@@std@@KA?AV?$ostreambuf_iterator@DU?$char_traits@D@std@@@2@V32@DI@Z" PURGE="0" COMMENT="" />
    <EXPORT ORDINAL="1232" NAME="?_Rep@?$num_put@GV?$ostreambuf_iterator@GU?$char_traits@G@std@@@std@@@std@@KA?AV?$ostreambuf_iterator@GU?$char_traits@G@std@@@2@V32@GI@Z" PURGE="0" COMMENT="" />
    <EXPORT ORDINAL="1233" NAME="?_Sinh@?$_Ctr@M@std@@SAMMM@Z" PURGE="0" COMMENT="" />
    <EXPORT ORDINAL="1234" NAME="?_Sinh@?$_Ctr@N@std@@SANNN@Z" PURGE="0" COMMENT="" />
    <EXPORT ORDINAL="1235" NAME="?_Sinh@?$_Ctr@O@std@@SAOOO@Z" PURGE="0" COMMENT="" />
    <EXPORT ORDINAL="1236" NAME="?_Split@?$basic_string@DU?$char_traits@D@std@@V?$allocator@D@2@@std@@AAEXXZ" PURGE="0" COMMENT="" />
    <EXPORT ORDINAL="1237" NAME="?_Split@?$basic_string@GU?$char_traits@G@std@@V?$allocator@G@2@@std@@AAEXXZ" PURGE="0" COMMENT="" />
    <EXPORT ORDINAL="1238" NAME="?_Stinit@?1??_Init@?$basic_filebuf@DU?$char_traits@D@std@@@std@@IAEXPAU_iobuf@@W4_Initfl@23@@Z@4HA" PURGE="-1" COMMENT="" />
    <EXPORT ORDINAL="1239" NAME="?_Stinit@?1??_Init@?$basic_filebuf@GU?$char_traits@G@std@@@std@@IAEXPAU_iobuf@@W4_Initfl@23@@Z@4HA" PURGE="-1" COMMENT="" />
    <EXPORT ORDINAL="1240" NAME="?_Sync@ios_base@std@@0_NA" PURGE="-1" COMMENT="" />
    <EXPORT ORDINAL="1241" NAME="?_Term@?$ctype@D@std@@KAXXZ" PURGE="0" COMMENT="" />
    <EXPORT ORDINAL="1242" NAME="?_Tidy@?$basic_string@DU?$char_traits@D@std@@V?$allocator@D@2@@std@@AAEX_N@Z" PURGE="4" COMMENT="" />
    <EXPORT ORDINAL="1243" NAME="?_Tidy@?$basic_string@GU?$char_traits@G@std@@V?$allocator@G@2@@std@@AAEX_N@Z" PURGE="4" COMMENT="" />
    <EXPORT ORDINAL="1244" NAME="?_Tidy@?$basic_stringbuf@DU?$char_traits@D@std@@V?$allocator@D@2@@std@@IAEXXZ" PURGE="0" COMMENT="" />
    <EXPORT ORDINAL="1245" NAME="?_Tidy@?$basic_stringbuf@GU?$char_traits@G@std@@V?$allocator@G@2@@std@@IAEXXZ" PURGE="0" COMMENT="" />
    <EXPORT ORDINAL="1246" NAME="?_Tidy@ios_base@std@@AAEXXZ" PURGE="0" COMMENT="" />
    <EXPORT ORDINAL="1247" NAME="?_Tidy@locale@std@@CAXXZ" PURGE="0" COMMENT="" />
    <EXPORT ORDINAL="1248" NAME="?_Tidy@strstreambuf@std@@IAEXXZ" PURGE="0" COMMENT="" />
    <EXPORT ORDINAL="1249" NAME="?_Xh@?BN@???$_Fabs@M@std@@YAMABV?$complex@M@1@PAH@Z@4MB" PURGE="-1" COMMENT="" />
    <EXPORT ORDINAL="1250" NAME="?_Xh@?BN@???$_Fabs@N@std@@YANABV?$complex@N@1@PAH@Z@4NB" PURGE="31147" COMMENT="" />
    <EXPORT ORDINAL="1251" NAME="?_Xh@?BN@???$_Fabs@O@std@@YAOABV?$complex@O@1@PAH@Z@4OB" PURGE="31147" COMMENT="" />
    <EXPORT ORDINAL="1252" NAME="?_Xl@?BN@???$_Fabs@M@std@@YAMABV?$complex@M@1@PAH@Z@4MB" PURGE="-1" COMMENT="" />
    <EXPORT ORDINAL="1253" NAME="?_Xl@?BN@???$_Fabs@N@std@@YANABV?$complex@N@1@PAH@Z@4NB" PURGE="31147" COMMENT="" />
    <EXPORT ORDINAL="1254" NAME="?_Xl@?BN@???$_Fabs@O@std@@YAOABV?$complex@O@1@PAH@Z@4OB" PURGE="31147" COMMENT="" />
    <EXPORT ORDINAL="1255" NAME="?_Xlen@std@@YAXXZ" PURGE="-1" COMMENT="" />
    <EXPORT ORDINAL="1256" NAME="?_Xran@std@@YAXXZ" PURGE="-1" COMMENT="" />
    <EXPORT ORDINAL="1257" NAME="?__Fiopen@std@@YAPAU_iobuf@@PBDH@Z" PURGE="0" COMMENT="" />
    <EXPORT ORDINAL="1258" NAME="??$abs@M@std@@YAMABV?$complex@M@0@@Z" PURGE="0" COMMENT="" />
    <EXPORT ORDINAL="1259" NAME="??$abs@N@std@@YANABV?$complex@N@0@@Z" PURGE="0" COMMENT="" />
    <EXPORT ORDINAL="1260" NAME="??$abs@O@std@@YAOABV?$complex@O@0@@Z" PURGE="0" COMMENT="" />
    <EXPORT ORDINAL="1261" NAME="?always_noconv@codecvt_base@std@@QBE_NXZ" PURGE="0" COMMENT="" />
    <EXPORT ORDINAL="1262" NAME="?append@?$basic_string@DU?$char_traits@D@std@@V?$allocator@D@2@@std@@QAEAAV12@ABV12@@Z" PURGE="4" COMMENT="" />
    <EXPORT ORDINAL="1263" NAME="?append@?$basic_string@DU?$char_traits@D@std@@V?$allocator@D@2@@std@@QAEAAV12@ABV12@II@Z" PURGE="12" COMMENT="" />
    <EXPORT ORDINAL="1264" NAME="?append@?$basic_string@DU?$char_traits@D@std@@V?$allocator@D@2@@std@@QAEAAV12@ID@Z" PURGE="8" COMMENT="" />
    <EXPORT ORDINAL="1265" NAME="?append@?$basic_string@DU?$char_traits@D@std@@V?$allocator@D@2@@std@@QAEAAV12@PBD0@Z" PURGE="8" COMMENT="" />
    <EXPORT ORDINAL="1266" NAME="?append@?$basic_string@DU?$char_traits@D@std@@V?$allocator@D@2@@std@@QAEAAV12@PBD@Z" PURGE="4" COMMENT="" />
    <EXPORT ORDINAL="1267" NAME="?append@?$basic_string@DU?$char_traits@D@std@@V?$allocator@D@2@@std@@QAEAAV12@PBDI@Z" PURGE="8" COMMENT="" />
    <EXPORT ORDINAL="1268" NAME="?append@?$basic_string@GU?$char_traits@G@std@@V?$allocator@G@2@@std@@QAEAAV12@ABV12@@Z" PURGE="4" COMMENT="" />
    <EXPORT ORDINAL="1269" NAME="?append@?$basic_string@GU?$char_traits@G@std@@V?$allocator@G@2@@std@@QAEAAV12@ABV12@II@Z" PURGE="12" COMMENT="" />
    <EXPORT ORDINAL="1270" NAME="?append@?$basic_string@GU?$char_traits@G@std@@V?$allocator@G@2@@std@@QAEAAV12@IG@Z" PURGE="8" COMMENT="" />
    <EXPORT ORDINAL="1271" NAME="?append@?$basic_string@GU?$char_traits@G@std@@V?$allocator@G@2@@std@@QAEAAV12@PBG0@Z" PURGE="8" COMMENT="" />
    <EXPORT ORDINAL="1272" NAME="?append@?$basic_string@GU?$char_traits@G@std@@V?$allocator@G@2@@std@@QAEAAV12@PBG@Z" PURGE="4" COMMENT="" />
    <EXPORT ORDINAL="1273" NAME="?append@?$basic_string@GU?$char_traits@G@std@@V?$allocator@G@2@@std@@QAEAAV12@PBGI@Z" PURGE="8" COMMENT="" />
    <EXPORT ORDINAL="1274" NAME="??$arg@M@std@@YAMABV?$complex@M@0@@Z" PURGE="0" COMMENT="" />
    <EXPORT ORDINAL="1275" NAME="??$arg@N@std@@YANABV?$complex@N@0@@Z" PURGE="-1" COMMENT="" />
    <EXPORT ORDINAL="1276" NAME="??$arg@O@std@@YAOABV?$complex@O@0@@Z" PURGE="-1" COMMENT="" />
    <EXPORT ORDINAL="1277" NAME="?assign@?$basic_string@DU?$char_traits@D@std@@V?$allocator@D@2@@std@@QAEAAV12@ABV12@@Z" PURGE="4" COMMENT="" />
    <EXPORT ORDINAL="1278" NAME="?assign@?$basic_string@DU?$char_traits@D@std@@V?$allocator@D@2@@std@@QAEAAV12@ABV12@II@Z" PURGE="12" COMMENT="" />
    <EXPORT ORDINAL="1279" NAME="?assign@?$basic_string@DU?$char_traits@D@std@@V?$allocator@D@2@@std@@QAEAAV12@ID@Z" PURGE="8" COMMENT="" />
    <EXPORT ORDINAL="1280" NAME="?assign@?$basic_string@DU?$char_traits@D@std@@V?$allocator@D@2@@std@@QAEAAV12@PBD0@Z" PURGE="8" COMMENT="" />
    <EXPORT ORDINAL="1281" NAME="?assign@?$basic_string@DU?$char_traits@D@std@@V?$allocator@D@2@@std@@QAEAAV12@PBD@Z" PURGE="4" COMMENT="" />
    <EXPORT ORDINAL="1282" NAME="?assign@?$basic_string@DU?$char_traits@D@std@@V?$allocator@D@2@@std@@QAEAAV12@PBDI@Z" PURGE="8" COMMENT="" />
    <EXPORT ORDINAL="1283" NAME="?assign@?$basic_string@GU?$char_traits@G@std@@V?$allocator@G@2@@std@@QAEAAV12@ABV12@@Z" PURGE="4" COMMENT="" />
    <EXPORT ORDINAL="1284" NAME="?assign@?$basic_string@GU?$char_traits@G@std@@V?$allocator@G@2@@std@@QAEAAV12@ABV12@II@Z" PURGE="12" COMMENT="" />
    <EXPORT ORDINAL="1285" NAME="?assign@?$basic_string@GU?$char_traits@G@std@@V?$allocator@G@2@@std@@QAEAAV12@IG@Z" PURGE="8" COMMENT="" />
    <EXPORT ORDINAL="1286" NAME="?assign@?$basic_string@GU?$char_traits@G@std@@V?$allocator@G@2@@std@@QAEAAV12@PBG0@Z" PURGE="8" COMMENT="" />
    <EXPORT ORDINAL="1287" NAME="?assign@?$basic_string@GU?$char_traits@G@std@@V?$allocator@G@2@@std@@QAEAAV12@PBG@Z" PURGE="4" COMMENT="" />
    <EXPORT ORDINAL="1288" NAME="?assign@?$basic_string@GU?$char_traits@G@std@@V?$allocator@G@2@@std@@QAEAAV12@PBGI@Z" PURGE="8" COMMENT="" />
    <EXPORT ORDINAL="1289" NAME="?assign@?$char_traits@D@std@@SAPADPADIABD@Z" PURGE="0" COMMENT="" />
    <EXPORT ORDINAL="1290" NAME="?assign@?$char_traits@D@std@@SAXAADABD@Z" PURGE="0" COMMENT="" />
    <EXPORT ORDINAL="1291" NAME="?assign@?$char_traits@G@std@@SAPAGPAGIABG@Z" PURGE="0" COMMENT="" />
    <EXPORT ORDINAL="1292" NAME="?assign@?$char_traits@G@std@@SAXAAGABG@Z" PURGE="0" COMMENT="" />
    <EXPORT ORDINAL="1293" NAME="?at@?$basic_string@DU?$char_traits@D@std@@V?$allocator@D@2@@std@@QAEAADI@Z" PURGE="4" COMMENT="" />
    <EXPORT ORDINAL="1294" NAME="?at@?$basic_string@DU?$char_traits@D@std@@V?$allocator@D@2@@std@@QBEABDI@Z" PURGE="4" COMMENT="" />
    <EXPORT ORDINAL="1295" NAME="?at@?$basic_string@GU?$char_traits@G@std@@V?$allocator@G@2@@std@@QAEAAGI@Z" PURGE="4" COMMENT="" />
    <EXPORT ORDINAL="1296" NAME="?at@?$basic_string@GU?$char_traits@G@std@@V?$allocator@G@2@@std@@QBEABGI@Z" PURGE="4" COMMENT="" />
    <EXPORT ORDINAL="1297" NAME="?atan2@?$_Ctr@M@std@@SAMMM@Z" PURGE="0" COMMENT="" />
    <EXPORT ORDINAL="1298" NAME="?atan2@?$_Ctr@N@std@@SANNN@Z" PURGE="-1" COMMENT="" />
    <EXPORT ORDINAL="1299" NAME="?atan2@?$_Ctr@O@std@@SAOOO@Z" PURGE="-1" COMMENT="" />
    <EXPORT ORDINAL="1300" NAME="?bad@ios_base@std@@QBE_NXZ" PURGE="0" COMMENT="" />
    <EXPORT ORDINAL="1301" NAME="?begin@?$basic_string@DU?$char_traits@D@std@@V?$allocator@D@2@@std@@QAEPADXZ" PURGE="0" COMMENT="" />
    <EXPORT ORDINAL="1302" NAME="?begin@?$basic_string@DU?$char_traits@D@std@@V?$allocator@D@2@@std@@QBEPBDXZ" PURGE="0" COMMENT="" />
    <EXPORT ORDINAL="1303" NAME="?begin@?$basic_string@GU?$char_traits@G@std@@V?$allocator@G@2@@std@@QAEPAGXZ" PURGE="0" COMMENT="" />
    <EXPORT ORDINAL="1304" NAME="?begin@?$basic_string@GU?$char_traits@G@std@@V?$allocator@G@2@@std@@QBEPBGXZ" PURGE="0" COMMENT="" />
    <EXPORT ORDINAL="1305" NAME="?c_str@?$basic_string@DU?$char_traits@D@std@@V?$allocator@D@2@@std@@QBEPBDXZ" PURGE="0" COMMENT="" />
    <EXPORT ORDINAL="1306" NAME="?c_str@?$basic_string@GU?$char_traits@G@std@@V?$allocator@G@2@@std@@QBEPBGXZ" PURGE="0" COMMENT="" />
    <EXPORT ORDINAL="1307" NAME="?capacity@?$basic_string@DU?$char_traits@D@std@@V?$allocator@D@2@@std@@QBEIXZ" PURGE="0" COMMENT="" />
    <EXPORT ORDINAL="1308" NAME="?capacity@?$basic_string@GU?$char_traits@G@std@@V?$allocator@G@2@@std@@QBEIXZ" PURGE="0" COMMENT="" />
    <EXPORT ORDINAL="1309" NAME="?cerr@std@@3V?$basic_ostream@DU?$char_traits@D@std@@@1@A" PURGE="-1" COMMENT="" />
    <EXPORT ORDINAL="1310" NAME="?cin@std@@3V?$basic_istream@DU?$char_traits@D@std@@@1@A" PURGE="-1" COMMENT="" />
    <EXPORT ORDINAL="1311" NAME="?classic@locale@std@@SAABV12@XZ" PURGE="0" COMMENT="" />
    <EXPORT ORDINAL="1312" NAME="?classic_table@?$ctype@D@std@@KAPBFXZ" PURGE="0" COMMENT="" />
    <EXPORT ORDINAL="1313" NAME="?clear@?$basic_ios@DU?$char_traits@D@std@@@std@@QAEXF@Z" PURGE="4" COMMENT="" />
    <EXPORT ORDINAL="1314" NAME="?clear@?$basic_ios@DU?$char_traits@D@std@@@std@@QAEXH_N@Z" PURGE="8" COMMENT="" />
    <EXPORT ORDINAL="1315" NAME="?clear@?$basic_ios@GU?$char_traits@G@std@@@std@@QAEXF@Z" PURGE="4" COMMENT="" />
    <EXPORT ORDINAL="1316" NAME="?clear@?$basic_ios@GU?$char_traits@G@std@@@std@@QAEXH_N@Z" PURGE="8" COMMENT="" />
    <EXPORT ORDINAL="1317" NAME="?clear@ios_base@std@@QAEXF@Z" PURGE="4" COMMENT="" />
    <EXPORT ORDINAL="1318" NAME="?clear@ios_base@std@@QAEXH_N@Z" PURGE="8" COMMENT="" />
    <EXPORT ORDINAL="1319" NAME="?clog@std@@3V?$basic_ostream@DU?$char_traits@D@std@@@1@A" PURGE="-1" COMMENT="" />
    <EXPORT ORDINAL="1320" NAME="?close@?$basic_filebuf@DU?$char_traits@D@std@@@std@@QAEPAV12@XZ" PURGE="0" COMMENT="" />
    <EXPORT ORDINAL="1321" NAME="?close@?$basic_filebuf@GU?$char_traits@G@std@@@std@@QAEPAV12@XZ" PURGE="0" COMMENT="" />
    <EXPORT ORDINAL="1322" NAME="?close@?$basic_fstream@DU?$char_traits@D@std@@@std@@QAEXXZ" PURGE="0" COMMENT="" />
    <EXPORT ORDINAL="1323" NAME="?close@?$basic_fstream@GU?$char_traits@G@std@@@std@@QAEXXZ" PURGE="0" COMMENT="" />
    <EXPORT ORDINAL="1324" NAME="?close@?$basic_ifstream@DU?$char_traits@D@std@@@std@@QAEXXZ" PURGE="0" COMMENT="" />
    <EXPORT ORDINAL="1325" NAME="?close@?$basic_ifstream@GU?$char_traits@G@std@@@std@@QAEXXZ" PURGE="0" COMMENT="" />
    <EXPORT ORDINAL="1326" NAME="?close@?$basic_ofstream@DU?$char_traits@D@std@@@std@@QAEXXZ" PURGE="0" COMMENT="" />
    <EXPORT ORDINAL="1327" NAME="?close@?$basic_ofstream@GU?$char_traits@G@std@@@std@@QAEXXZ" PURGE="0" COMMENT="" />
    <EXPORT ORDINAL="1328" NAME="?close@?$messages@D@std@@QBEXH@Z" PURGE="4" COMMENT="" />
    <EXPORT ORDINAL="1329" NAME="?close@?$messages@G@std@@QBEXH@Z" PURGE="4" COMMENT="" />
    <EXPORT ORDINAL="1330" NAME="?compare@?$basic_string@DU?$char_traits@D@std@@V?$allocator@D@2@@std@@QBEHABV12@@Z" PURGE="4" COMMENT="" />
    <EXPORT ORDINAL="1331" NAME="?compare@?$basic_string@DU?$char_traits@D@std@@V?$allocator@D@2@@std@@QBEHIIABV12@@Z" PURGE="12" COMMENT="" />
    <EXPORT ORDINAL="1332" NAME="?compare@?$basic_string@DU?$char_traits@D@std@@V?$allocator@D@2@@std@@QBEHIIABV12@II@Z" PURGE="20" COMMENT="" />
    <EXPORT ORDINAL="1333" NAME="?compare@?$basic_string@DU?$char_traits@D@std@@V?$allocator@D@2@@std@@QBEHIIPBD@Z" PURGE="12" COMMENT="" />
    <EXPORT ORDINAL="1334" NAME="?compare@?$basic_string@DU?$char_traits@D@std@@V?$allocator@D@2@@std@@QBEHIIPBDI@Z" PURGE="16" COMMENT="" />
    <EXPORT ORDINAL="1335" NAME="?compare@?$basic_string@DU?$char_traits@D@std@@V?$allocator@D@2@@std@@QBEHPBD@Z" PURGE="4" COMMENT="" />
    <EXPORT ORDINAL="1336" NAME="?compare@?$basic_string@GU?$char_traits@G@std@@V?$allocator@G@2@@std@@QBEHABV12@@Z" PURGE="4" COMMENT="" />
    <EXPORT ORDINAL="1337" NAME="?compare@?$basic_string@GU?$char_traits@G@std@@V?$allocator@G@2@@std@@QBEHIIABV12@@Z" PURGE="12" COMMENT="" />
    <EXPORT ORDINAL="1338" NAME="?compare@?$basic_string@GU?$char_traits@G@std@@V?$allocator@G@2@@std@@QBEHIIABV12@II@Z" PURGE="20" COMMENT="" />
    <EXPORT ORDINAL="1339" NAME="?compare@?$basic_string@GU?$char_traits@G@std@@V?$allocator@G@2@@std@@QBEHIIPBG@Z" PURGE="12" COMMENT="" />
    <EXPORT ORDINAL="1340" NAME="?compare@?$basic_string@GU?$char_traits@G@std@@V?$allocator@G@2@@std@@QBEHIIPBGI@Z" PURGE="16" COMMENT="" />
    <EXPORT ORDINAL="1341" NAME="?compare@?$basic_string@GU?$char_traits@G@std@@V?$allocator@G@2@@std@@QBEHPBG@Z" PURGE="4" COMMENT="" />
    <EXPORT ORDINAL="1342" NAME="?compare@?$char_traits@D@std@@SAHPBD0I@Z" PURGE="-1" COMMENT="" />
    <EXPORT ORDINAL="1343" NAME="?compare@?$char_traits@G@std@@SAHPBG0I@Z" PURGE="0" COMMENT="" />
    <EXPORT ORDINAL="1344" NAME="?compare@?$collate@D@std@@QBEHPBD000@Z" PURGE="16" COMMENT="" />
    <EXPORT ORDINAL="1345" NAME="?compare@?$collate@G@std@@QBEHPBG000@Z" PURGE="16" COMMENT="" />
    <EXPORT ORDINAL="1346" NAME="??$conj@M@std@@YA?AV?$complex@M@0@ABV10@@Z" PURGE="0" COMMENT="" />
    <EXPORT ORDINAL="1347" NAME="??$conj@N@std@@YA?AV?$complex@N@0@ABV10@@Z" PURGE="0" COMMENT="" />
    <EXPORT ORDINAL="1348" NAME="??$conj@O@std@@YA?AV?$complex@O@0@ABV10@@Z" PURGE="0" COMMENT="" />
    <EXPORT ORDINAL="1349" NAME="?copy@?$basic_string@DU?$char_traits@D@std@@V?$allocator@D@2@@std@@QBEIPADII@Z" PURGE="12" COMMENT="" />
    <EXPORT ORDINAL="1350" NAME="?copy@?$basic_string@GU?$char_traits@G@std@@V?$allocator@G@2@@std@@QBEIPAGII@Z" PURGE="12" COMMENT="" />
    <EXPORT ORDINAL="1351" NAME="?copy@?$char_traits@D@std@@SAPADPADPBDI@Z" PURGE="-1" COMMENT="" />
    <EXPORT ORDINAL="1352" NAME="?copy@?$char_traits@G@std@@SAPAGPAGPBGI@Z" PURGE="0" COMMENT="" />
    <EXPORT ORDINAL="1353" NAME="?copyfmt@?$basic_ios@DU?$char_traits@D@std@@@std@@QAEAAV12@ABV12@@Z" PURGE="4" COMMENT="" />
    <EXPORT ORDINAL="1354" NAME="?copyfmt@?$basic_ios@GU?$char_traits@G@std@@@std@@QAEAAV12@ABV12@@Z" PURGE="4" COMMENT="" />
    <EXPORT ORDINAL="1355" NAME="?copyfmt@ios_base@std@@QAEAAV12@ABV12@@Z" PURGE="4" COMMENT="" />
    <EXPORT ORDINAL="1356" NAME="?cos@?$_Ctr@M@std@@SAMM@Z" PURGE="0" COMMENT="" />
    <EXPORT ORDINAL="1357" NAME="?cos@?$_Ctr@N@std@@SANN@Z" PURGE="-1" COMMENT="" />
    <EXPORT ORDINAL="1358" NAME="?cos@?$_Ctr@O@std@@SAOO@Z" PURGE="-1" COMMENT="" />
    <EXPORT ORDINAL="1359" NAME="??$cos@M@std@@YA?AV?$complex@M@0@ABV10@@Z" PURGE="0" COMMENT="" />
    <EXPORT ORDINAL="1360" NAME="??$cos@N@std@@YA?AV?$complex@N@0@ABV10@@Z" PURGE="0" COMMENT="" />
    <EXPORT ORDINAL="1361" NAME="??$cos@O@std@@YA?AV?$complex@O@0@ABV10@@Z" PURGE="0" COMMENT="" />
    <EXPORT ORDINAL="1362" NAME="??$cosh@M@std@@YA?AV?$complex@M@0@ABV10@@Z" PURGE="0" COMMENT="" />
    <EXPORT ORDINAL="1363" NAME="??$cosh@N@std@@YA?AV?$complex@N@0@ABV10@@Z" PURGE="0" COMMENT="" />
    <EXPORT ORDINAL="1364" NAME="??$cosh@O@std@@YA?AV?$complex@O@0@ABV10@@Z" PURGE="0" COMMENT="" />
    <EXPORT ORDINAL="1365" NAME="?cout@std@@3V?$basic_ostream@DU?$char_traits@D@std@@@1@A" PURGE="-1" COMMENT="" />
    <EXPORT ORDINAL="1366" NAME="?curr_symbol@?$_Mpunct@D@std@@QBE?AV?$basic_string@DU?$char_traits@D@std@@V?$allocator@D@2@@2@XZ" PURGE="4" COMMENT="" />
    <EXPORT ORDINAL="1367" NAME="?curr_symbol@?$_Mpunct@G@std@@QBE?AV?$basic_string@GU?$char_traits@G@std@@V?$allocator@G@2@@2@XZ" PURGE="4" COMMENT="" />
    <EXPORT ORDINAL="1368" NAME="?data@?$basic_string@DU?$char_traits@D@std@@V?$allocator@D@2@@std@@QBEPBDXZ" PURGE="0" COMMENT="" />
    <EXPORT ORDINAL="1369" NAME="?data@?$basic_string@GU?$char_traits@G@std@@V?$allocator@G@2@@std@@QBEPBGXZ" PURGE="0" COMMENT="" />
    <EXPORT ORDINAL="1370" NAME="?date_order@?$time_get@DV?$istreambuf_iterator@DU?$char_traits@D@std@@@std@@@std@@QBEHXZ" PURGE="0" COMMENT="" />
    <EXPORT ORDINAL="1371" NAME="?date_order@?$time_get@GV?$istreambuf_iterator@GU?$char_traits@G@std@@@std@@@std@@QBEHXZ" PURGE="0" COMMENT="" />
    <EXPORT ORDINAL="1372" NAME="?decimal_point@?$_Mpunct@D@std@@QBEDXZ" PURGE="0" COMMENT="" />
    <EXPORT ORDINAL="1373" NAME="?decimal_point@?$_Mpunct@G@std@@QBEGXZ" PURGE="0" COMMENT="" />
    <EXPORT ORDINAL="1374" NAME="?decimal_point@?$numpunct@D@std@@QBEDXZ" PURGE="0" COMMENT="" />
    <EXPORT ORDINAL="1375" NAME="?decimal_point@?$numpunct@G@std@@QBEGXZ" PURGE="0" COMMENT="" />
    <EXPORT ORDINAL="1376" NAME="?denorm_min@?$numeric_limits@C@std@@SACXZ" PURGE="0" COMMENT="" />
    <EXPORT ORDINAL="1377" NAME="?denorm_min@?$numeric_limits@D@std@@SADXZ" PURGE="0" COMMENT="" />
    <EXPORT ORDINAL="1378" NAME="?denorm_min@?$numeric_limits@E@std@@SAEXZ" PURGE="0" COMMENT="" />
    <EXPORT ORDINAL="1379" NAME="?denorm_min@?$numeric_limits@F@std@@SAFXZ" PURGE="0" COMMENT="" />
    <EXPORT ORDINAL="1380" NAME="?denorm_min@?$numeric_limits@G@std@@SAGXZ" PURGE="0" COMMENT="" />
    <EXPORT ORDINAL="1381" NAME="?denorm_min@?$numeric_limits@H@std@@SAHXZ" PURGE="0" COMMENT="" />
    <EXPORT ORDINAL="1382" NAME="?denorm_min@?$numeric_limits@I@std@@SAIXZ" PURGE="0" COMMENT="" />
    <EXPORT ORDINAL="1383" NAME="?denorm_min@?$numeric_limits@J@std@@SAJXZ" PURGE="0" COMMENT="" />
    <EXPORT ORDINAL="1384" NAME="?denorm_min@?$numeric_limits@K@std@@SAKXZ" PURGE="0" COMMENT="" />
    <EXPORT ORDINAL="1385" NAME="?denorm_min@?$numeric_limits@M@std@@SAMXZ" PURGE="0" COMMENT="" />
    <EXPORT ORDINAL="1386" NAME="?denorm_min@?$numeric_limits@N@std@@SANXZ" PURGE="0" COMMENT="" />
    <EXPORT ORDINAL="1387" NAME="?denorm_min@?$numeric_limits@O@std@@SAOXZ" PURGE="0" COMMENT="" />
    <EXPORT ORDINAL="1388" NAME="?denorm_min@?$numeric_limits@_N@std@@SA_NXZ" PURGE="0" COMMENT="" />
    <EXPORT ORDINAL="1389" NAME="?do_always_noconv@?$codecvt@GDH@std@@MBE_NXZ" PURGE="0" COMMENT="" />
    <EXPORT ORDINAL="1390" NAME="?do_always_noconv@codecvt_base@std@@MBE_NXZ" PURGE="0" COMMENT="" />
    <EXPORT ORDINAL="1391" NAME="?do_close@?$messages@D@std@@MBEXH@Z" PURGE="4" COMMENT="" />
    <EXPORT ORDINAL="1392" NAME="?do_close@?$messages@G@std@@MBEXH@Z" PURGE="4" COMMENT="" />
    <EXPORT ORDINAL="1393" NAME="?do_compare@?$collate@D@std@@MBEHPBD000@Z" PURGE="16" COMMENT="" />
    <EXPORT ORDINAL="1394" NAME="?do_compare@?$collate@G@std@@MBEHPBG000@Z" PURGE="16" COMMENT="" />
    <EXPORT ORDINAL="1395" NAME="?do_curr_symbol@?$_Mpunct@D@std@@MBE?AV?$basic_string@DU?$char_traits@D@std@@V?$allocator@D@2@@2@XZ" PURGE="4" COMMENT="" />
    <EXPORT ORDINAL="1396" NAME="?do_curr_symbol@?$_Mpunct@G@std@@MBE?AV?$basic_string@GU?$char_traits@G@std@@V?$allocator@G@2@@2@XZ" PURGE="4" COMMENT="" />
    <EXPORT ORDINAL="1397" NAME="?do_date_order@?$time_get@DV?$istreambuf_iterator@DU?$char_traits@D@std@@@std@@@std@@MBEHXZ" PURGE="0" COMMENT="" />
    <EXPORT ORDINAL="1398" NAME="?do_date_order@?$time_get@GV?$istreambuf_iterator@GU?$char_traits@G@std@@@std@@@std@@MBEHXZ" PURGE="0" COMMENT="" />
    <EXPORT ORDINAL="1399" NAME="?do_decimal_point@?$_Mpunct@D@std@@MBEDXZ" PURGE="0" COMMENT="" />
    <EXPORT ORDINAL="1400" NAME="?do_decimal_point@?$_Mpunct@G@std@@MBEGXZ" PURGE="0" COMMENT="" />
    <EXPORT ORDINAL="1401" NAME="?do_decimal_point@?$numpunct@D@std@@MBEDXZ" PURGE="0" COMMENT="" />
    <EXPORT ORDINAL="1402" NAME="?do_decimal_point@?$numpunct@G@std@@MBEGXZ" PURGE="0" COMMENT="" />
    <EXPORT ORDINAL="1403" NAME="?do_encoding@?$codecvt@GDH@std@@MBEHXZ" PURGE="0" COMMENT="" />
    <EXPORT ORDINAL="1404" NAME="?do_encoding@codecvt_base@std@@MBEHXZ" PURGE="0" COMMENT="" />
    <EXPORT ORDINAL="1405" NAME="?do_falsename@?$numpunct@D@std@@MBE?AV?$basic_string@DU?$char_traits@D@std@@V?$allocator@D@2@@2@XZ" PURGE="4" COMMENT="" />
    <EXPORT ORDINAL="1406" NAME="?do_falsename@?$numpunct@G@std@@MBE?AV?$basic_string@GU?$char_traits@G@std@@V?$allocator@G@2@@2@XZ" PURGE="4" COMMENT="" />
    <EXPORT ORDINAL="1407" NAME="?do_frac_digits@?$_Mpunct@D@std@@MBEHXZ" PURGE="0" COMMENT="" />
    <EXPORT ORDINAL="1408" NAME="?do_frac_digits@?$_Mpunct@G@std@@MBEHXZ" PURGE="0" COMMENT="" />
    <EXPORT ORDINAL="1409" NAME="?do_get@?$messages@D@std@@MBE?AV?$basic_string@DU?$char_traits@D@std@@V?$allocator@D@2@@2@HHHABV32@@Z" PURGE="20" COMMENT="" />
    <EXPORT ORDINAL="1410" NAME="?do_get@?$messages@G@std@@MBE?AV?$basic_string@GU?$char_traits@G@std@@V?$allocator@G@2@@2@HHHABV32@@Z" PURGE="20" COMMENT="" />
    <EXPORT ORDINAL="1411" NAME="?do_get@?$money_get@DV?$istreambuf_iterator@DU?$char_traits@D@std@@@std@@@std@@MBE?AV?$istreambuf_iterator@DU?$char_traits@D@std@@@2@V32@0_NAAVios_base@2@AAHAAO@Z" PURGE="36" COMMENT="" />
    <EXPORT ORDINAL="1412" NAME="?do_get@?$money_get@DV?$istreambuf_iterator@DU?$char_traits@D@std@@@std@@@std@@MBE?AV?$istreambuf_iterator@DU?$char_traits@D@std@@@2@V32@0_NAAVios_base@2@AAHAAV?$basic_string@DU?$char_traits@D@std@@V?$allocator@D@2@@2@@Z" PURGE="36" COMMENT="" />
    <EXPORT ORDINAL="1413" NAME="?do_get@?$money_get@GV?$istreambuf_iterator@GU?$char_traits@G@std@@@std@@@std@@MBE?AV?$istreambuf_iterator@GU?$char_traits@G@std@@@2@V32@0_NAAVios_base@2@AAHAAO@Z" PURGE="36" COMMENT="" />
    <EXPORT ORDINAL="1414" NAME="?do_get@?$money_get@GV?$istreambuf_iterator@GU?$char_traits@G@std@@@std@@@std@@MBE?AV?$istreambuf_iterator@GU?$char_traits@G@std@@@2@V32@0_NAAVios_base@2@AAHAAV?$basic_string@GU?$char_traits@G@std@@V?$allocator@G@2@@2@@Z" PURGE="36" COMMENT="" />
    <EXPORT ORDINAL="1415" NAME="?do_get@?$num_get@DV?$istreambuf_iterator@DU?$char_traits@D@std@@@std@@@std@@MBE?AV?$istreambuf_iterator@DU?$char_traits@D@std@@@2@V32@0AAVios_base@2@AAHAAG@Z" PURGE="32" COMMENT="" />
    <EXPORT ORDINAL="1416" NAME="?do_get@?$num_get@DV?$istreambuf_iterator@DU?$char_traits@D@std@@@std@@@std@@MBE?AV?$istreambuf_iterator@DU?$char_traits@D@std@@@2@V32@0AAVios_base@2@AAHAAI@Z" PURGE="32" COMMENT="" />
    <EXPORT ORDINAL="1417" NAME="?do_get@?$num_get@DV?$istreambuf_iterator@DU?$char_traits@D@std@@@std@@@std@@MBE?AV?$istreambuf_iterator@DU?$char_traits@D@std@@@2@V32@0AAVios_base@2@AAHAAJ@Z" PURGE="32" COMMENT="" />
    <EXPORT ORDINAL="1418" NAME="?do_get@?$num_get@DV?$istreambuf_iterator@DU?$char_traits@D@std@@@std@@@std@@MBE?AV?$istreambuf_iterator@DU?$char_traits@D@std@@@2@V32@0AAVios_base@2@AAHAAK@Z" PURGE="32" COMMENT="" />
    <EXPORT ORDINAL="1419" NAME="?do_get@?$num_get@DV?$istreambuf_iterator@DU?$char_traits@D@std@@@std@@@std@@MBE?AV?$istreambuf_iterator@DU?$char_traits@D@std@@@2@V32@0AAVios_base@2@AAHAAM@Z" PURGE="32" COMMENT="" />
    <EXPORT ORDINAL="1420" NAME="?do_get@?$num_get@DV?$istreambuf_iterator@DU?$char_traits@D@std@@@std@@@std@@MBE?AV?$istreambuf_iterator@DU?$char_traits@D@std@@@2@V32@0AAVios_base@2@AAHAAN@Z" PURGE="32" COMMENT="" />
    <EXPORT ORDINAL="1421" NAME="?do_get@?$num_get@DV?$istreambuf_iterator@DU?$char_traits@D@std@@@std@@@std@@MBE?AV?$istreambuf_iterator@DU?$char_traits@D@std@@@2@V32@0AAVios_base@2@AAHAAO@Z" PURGE="32" COMMENT="" />
    <EXPORT ORDINAL="1422" NAME="?do_get@?$num_get@DV?$istreambuf_iterator@DU?$char_traits@D@std@@@std@@@std@@MBE?AV?$istreambuf_iterator@DU?$char_traits@D@std@@@2@V32@0AAVios_base@2@AAHAAPAX@Z" PURGE="32" COMMENT="" />
    <EXPORT ORDINAL="1423" NAME="?do_get@?$num_get@DV?$istreambuf_iterator@DU?$char_traits@D@std@@@std@@@std@@MBE?AV?$istreambuf_iterator@DU?$char_traits@D@std@@@2@V32@0AAVios_base@2@AAHAA_N@Z" PURGE="32" COMMENT="" />
    <EXPORT ORDINAL="1424" NAME="?do_get@?$num_get@GV?$istreambuf_iterator@GU?$char_traits@G@std@@@std@@@std@@MBE?AV?$istreambuf_iterator@GU?$char_traits@G@std@@@2@V32@0AAVios_base@2@AAHAAG@Z" PURGE="32" COMMENT="" />
    <EXPORT ORDINAL="1425" NAME="?do_get@?$num_get@GV?$istreambuf_iterator@GU?$char_traits@G@std@@@std@@@std@@MBE?AV?$istreambuf_iterator@GU?$char_traits@G@std@@@2@V32@0AAVios_base@2@AAHAAI@Z" PURGE="32" COMMENT="" />
    <EXPORT ORDINAL="1426" NAME="?do_get@?$num_get@GV?$istreambuf_iterator@GU?$char_traits@G@std@@@std@@@std@@MBE?AV?$istreambuf_iterator@GU?$char_traits@G@std@@@2@V32@0AAVios_base@2@AAHAAJ@Z" PURGE="32" COMMENT="" />
    <EXPORT ORDINAL="1427" NAME="?do_get@?$num_get@GV?$istreambuf_iterator@GU?$char_traits@G@std@@@std@@@std@@MBE?AV?$istreambuf_iterator@GU?$char_traits@G@std@@@2@V32@0AAVios_base@2@AAHAAK@Z" PURGE="32" COMMENT="" />
    <EXPORT ORDINAL="1428" NAME="?do_get@?$num_get@GV?$istreambuf_iterator@GU?$char_traits@G@std@@@std@@@std@@MBE?AV?$istreambuf_iterator@GU?$char_traits@G@std@@@2@V32@0AAVios_base@2@AAHAAM@Z" PURGE="32" COMMENT="" />
    <EXPORT ORDINAL="1429" NAME="?do_get@?$num_get@GV?$istreambuf_iterator@GU?$char_traits@G@std@@@std@@@std@@MBE?AV?$istreambuf_iterator@GU?$char_traits@G@std@@@2@V32@0AAVios_base@2@AAHAAN@Z" PURGE="32" COMMENT="" />
    <EXPORT ORDINAL="1430" NAME="?do_get@?$num_get@GV?$istreambuf_iterator@GU?$char_traits@G@std@@@std@@@std@@MBE?AV?$istreambuf_iterator@GU?$char_traits@G@std@@@2@V32@0AAVios_base@2@AAHAAO@Z" PURGE="32" COMMENT="" />
    <EXPORT ORDINAL="1431" NAME="?do_get@?$num_get@GV?$istreambuf_iterator@GU?$char_traits@G@std@@@std@@@std@@MBE?AV?$istreambuf_iterator@GU?$char_traits@G@std@@@2@V32@0AAVios_base@2@AAHAAPAX@Z" PURGE="32" COMMENT="" />
    <EXPORT ORDINAL="1432" NAME="?do_get@?$num_get@GV?$istreambuf_iterator@GU?$char_traits@G@std@@@std@@@std@@MBE?AV?$istreambuf_iterator@GU?$char_traits@G@std@@@2@V32@0AAVios_base@2@AAHAA_N@Z" PURGE="32" COMMENT="" />
    <EXPORT ORDINAL="1433" NAME="?do_get_date@?$time_get@DV?$istreambuf_iterator@DU?$char_traits@D@std@@@std@@@std@@MBE?AV?$istreambuf_iterator@DU?$char_traits@D@std@@@2@V32@0AAVios_base@2@AAHPAUtm@@@Z" PURGE="32" COMMENT="" />
    <EXPORT ORDINAL="1434" NAME="?do_get_date@?$time_get@GV?$istreambuf_iterator@GU?$char_traits@G@std@@@std@@@std@@MBE?AV?$istreambuf_iterator@GU?$char_traits@G@std@@@2@V32@0AAVios_base@2@AAHPAUtm@@@Z" PURGE="32" COMMENT="" />
    <EXPORT ORDINAL="1435" NAME="?do_get_monthname@?$time_get@DV?$istreambuf_iterator@DU?$char_traits@D@std@@@std@@@std@@MBE?AV?$istreambuf_iterator@DU?$char_traits@D@std@@@2@V32@0AAVios_base@2@AAHPAUtm@@@Z" PURGE="32" COMMENT="" />
    <EXPORT ORDINAL="1436" NAME="?do_get_monthname@?$time_get@GV?$istreambuf_iterator@GU?$char_traits@G@std@@@std@@@std@@MBE?AV?$istreambuf_iterator@GU?$char_traits@G@std@@@2@V32@0AAVios_base@2@AAHPAUtm@@@Z" PURGE="32" COMMENT="" />
    <EXPORT ORDINAL="1437" NAME="?do_get_time@?$time_get@DV?$istreambuf_iterator@DU?$char_traits@D@std@@@std@@@std@@MBE?AV?$istreambuf_iterator@DU?$char_traits@D@std@@@2@V32@0AAVios_base@2@AAHPAUtm@@@Z" PURGE="32" COMMENT="" />
    <EXPORT ORDINAL="1438" NAME="?do_get_time@?$time_get@GV?$istreambuf_iterator@GU?$char_traits@G@std@@@std@@@std@@MBE?AV?$istreambuf_iterator@GU?$char_traits@G@std@@@2@V32@0AAVios_base@2@AAHPAUtm@@@Z" PURGE="32" COMMENT="" />
    <EXPORT ORDINAL="1439" NAME="?do_get_weekday@?$time_get@DV?$istreambuf_iterator@DU?$char_traits@D@std@@@std@@@std@@MBE?AV?$istreambuf_iterator@DU?$char_traits@D@std@@@2@V32@0AAVios_base@2@AAHPAUtm@@@Z" PURGE="32" COMMENT="" />
    <EXPORT ORDINAL="1440" NAME="?do_get_weekday@?$time_get@GV?$istreambuf_iterator@GU?$char_traits@G@std@@@std@@@std@@MBE?AV?$istreambuf_iterator@GU?$char_traits@G@std@@@2@V32@0AAVios_base@2@AAHPAUtm@@@Z" PURGE="32" COMMENT="" />
    <EXPORT ORDINAL="1441" NAME="?do_get_year@?$time_get@DV?$istreambuf_iterator@DU?$char_traits@D@std@@@std@@@std@@MBE?AV?$istreambuf_iterator@DU?$char_traits@D@std@@@2@V32@0AAVios_base@2@AAHPAUtm@@@Z" PURGE="32" COMMENT="" />
    <EXPORT ORDINAL="1442" NAME="?do_get_year@?$time_get@GV?$istreambuf_iterator@GU?$char_traits@G@std@@@std@@@std@@MBE?AV?$istreambuf_iterator@GU?$char_traits@G@std@@@2@V32@0AAVios_base@2@AAHPAUtm@@@Z" PURGE="32" COMMENT="" />
    <EXPORT ORDINAL="1443" NAME="?do_grouping@?$_Mpunct@D@std@@MBE?AV?$basic_string@DU?$char_traits@D@std@@V?$allocator@D@2@@2@XZ" PURGE="4" COMMENT="" />
    <EXPORT ORDINAL="1444" NAME="?do_grouping@?$_Mpunct@G@std@@MBE?AV?$basic_string@DU?$char_traits@D@std@@V?$allocator@D@2@@2@XZ" PURGE="4" COMMENT="" />
    <EXPORT ORDINAL="1445" NAME="?do_grouping@?$numpunct@D@std@@MBE?AV?$basic_string@DU?$char_traits@D@std@@V?$allocator@D@2@@2@XZ" PURGE="4" COMMENT="" />
    <EXPORT ORDINAL="1446" NAME="?do_grouping@?$numpunct@G@std@@MBE?AV?$basic_string@DU?$char_traits@D@std@@V?$allocator@D@2@@2@XZ" PURGE="4" COMMENT="" />
    <EXPORT ORDINAL="1447" NAME="?do_hash@?$collate@D@std@@MBEJPBD0@Z" PURGE="8" COMMENT="" />
    <EXPORT ORDINAL="1448" NAME="?do_hash@?$collate@G@std@@MBEJPBG0@Z" PURGE="8" COMMENT="" />
    <EXPORT ORDINAL="1449" NAME="?do_in@?$codecvt@DDH@std@@MBEHAAHPBD1AAPBDPAD3AAPAD@Z" PURGE="28" COMMENT="" />
    <EXPORT ORDINAL="1450" NAME="?do_in@?$codecvt@GDH@std@@MBEHAAHPBD1AAPBDPAG3AAPAG@Z" PURGE="28" COMMENT="" />
    <EXPORT ORDINAL="1451" NAME="?do_is@?$ctype@G@std@@MBEPBGPBG0PAF@Z" PURGE="12" COMMENT="" />
    <EXPORT ORDINAL="1452" NAME="?do_is@?$ctype@G@std@@MBE_NFG@Z" PURGE="8" COMMENT="" />
    <EXPORT ORDINAL="1453" NAME="?do_length@?$codecvt@DDH@std@@MBEHAAHPBD1I@Z" PURGE="16" COMMENT="" />
    <EXPORT ORDINAL="1454" NAME="?do_length@?$codecvt@GDH@std@@MBEHAAHPBG1I@Z" PURGE="16" COMMENT="" />
    <EXPORT ORDINAL="1455" NAME="?do_max_length@?$codecvt@GDH@std@@MBEHXZ" PURGE="0" COMMENT="" />
    <EXPORT ORDINAL="1456" NAME="?do_max_length@codecvt_base@std@@MBEHXZ" PURGE="0" COMMENT="" />
    <EXPORT ORDINAL="1457" NAME="?do_narrow@?$ctype@G@std@@MBEDGD@Z" PURGE="8" COMMENT="" />
    <EXPORT ORDINAL="1458" NAME="?do_narrow@?$ctype@G@std@@MBEPBGPBG0DPAD@Z" PURGE="16" COMMENT="" />
    <EXPORT ORDINAL="1459" NAME="?do_neg_format@?$_Mpunct@D@std@@MBE?AUpattern@money_base@2@XZ" PURGE="4" COMMENT="" />
    <EXPORT ORDINAL="1460" NAME="?do_neg_format@?$_Mpunct@G@std@@MBE?AUpattern@money_base@2@XZ" PURGE="4" COMMENT="" />
    <EXPORT ORDINAL="1461" NAME="?do_negative_sign@?$_Mpunct@D@std@@MBE?AV?$basic_string@DU?$char_traits@D@std@@V?$allocator@D@2@@2@XZ" PURGE="4" COMMENT="" />
    <EXPORT ORDINAL="1462" NAME="?do_negative_sign@?$_Mpunct@G@std@@MBE?AV?$basic_string@GU?$char_traits@G@std@@V?$allocator@G@2@@2@XZ" PURGE="4" COMMENT="" />
    <EXPORT ORDINAL="1463" NAME="?do_open@?$messages@D@std@@MBEHABV?$basic_string@DU?$char_traits@D@std@@V?$allocator@D@2@@2@ABVlocale@2@@Z" PURGE="8" COMMENT="" />
    <EXPORT ORDINAL="1464" NAME="?do_open@?$messages@G@std@@MBEHABV?$basic_string@DU?$char_traits@D@std@@V?$allocator@D@2@@2@ABVlocale@2@@Z" PURGE="8" COMMENT="" />
    <EXPORT ORDINAL="1465" NAME="?do_out@?$codecvt@DDH@std@@MBEHAAHPBD1AAPBDPAD3AAPAD@Z" PURGE="28" COMMENT="" />
    <EXPORT ORDINAL="1466" NAME="?do_out@?$codecvt@GDH@std@@MBEHAAHPBG1AAPBGPAD3AAPAD@Z" PURGE="28" COMMENT="" />
    <EXPORT ORDINAL="1467" NAME="?do_pos_format@?$_Mpunct@D@std@@MBE?AUpattern@money_base@2@XZ" PURGE="4" COMMENT="" />
    <EXPORT ORDINAL="1468" NAME="?do_pos_format@?$_Mpunct@G@std@@MBE?AUpattern@money_base@2@XZ" PURGE="4" COMMENT="" />
    <EXPORT ORDINAL="1469" NAME="?do_positive_sign@?$_Mpunct@D@std@@MBE?AV?$basic_string@DU?$char_traits@D@std@@V?$allocator@D@2@@2@XZ" PURGE="4" COMMENT="" />
    <EXPORT ORDINAL="1470" NAME="?do_positive_sign@?$_Mpunct@G@std@@MBE?AV?$basic_string@GU?$char_traits@G@std@@V?$allocator@G@2@@2@XZ" PURGE="4" COMMENT="" />
    <EXPORT ORDINAL="1471" NAME="?do_put@?$money_put@DV?$ostreambuf_iterator@DU?$char_traits@D@std@@@std@@@std@@MBE?AV?$ostreambuf_iterator@DU?$char_traits@D@std@@@2@V32@_NAAVios_base@2@DABV?$basic_string@DU?$char_traits@D@std@@V?$allocator@D@2@@2@@Z" PURGE="28" COMMENT="" />
    <EXPORT ORDINAL="1472" NAME="?do_put@?$money_put@DV?$ostreambuf_iterator@DU?$char_traits@D@std@@@std@@@std@@MBE?AV?$ostreambuf_iterator@DU?$char_traits@D@std@@@2@V32@_NAAVios_base@2@DO@Z" PURGE="32" COMMENT="" />
    <EXPORT ORDINAL="1473" NAME="?do_put@?$money_put@GV?$ostreambuf_iterator@GU?$char_traits@G@std@@@std@@@std@@MBE?AV?$ostreambuf_iterator@GU?$char_traits@G@std@@@2@V32@_NAAVios_base@2@GABV?$basic_string@GU?$char_traits@G@std@@V?$allocator@G@2@@2@@Z" PURGE="28" COMMENT="" />
    <EXPORT ORDINAL="1474" NAME="?do_put@?$money_put@GV?$ostreambuf_iterator@GU?$char_traits@G@std@@@std@@@std@@MBE?AV?$ostreambuf_iterator@GU?$char_traits@G@std@@@2@V32@_NAAVios_base@2@GO@Z" PURGE="32" COMMENT="" />
    <EXPORT ORDINAL="1475" NAME="?do_put@?$num_put@DV?$ostreambuf_iterator@DU?$char_traits@D@std@@@std@@@std@@MBE?AV?$ostreambuf_iterator@DU?$char_traits@D@std@@@2@V32@AAVios_base@2@DJ@Z" PURGE="24" COMMENT="" />
    <EXPORT ORDINAL="1476" NAME="?do_put@?$num_put@DV?$ostreambuf_iterator@DU?$char_traits@D@std@@@std@@@std@@MBE?AV?$ostreambuf_iterator@DU?$char_traits@D@std@@@2@V32@AAVios_base@2@DK@Z" PURGE="24" COMMENT="" />
    <EXPORT ORDINAL="1477" NAME="?do_put@?$num_put@DV?$ostreambuf_iterator@DU?$char_traits@D@std@@@std@@@std@@MBE?AV?$ostreambuf_iterator@DU?$char_traits@D@std@@@2@V32@AAVios_base@2@DN@Z" PURGE="28" COMMENT="" />
    <EXPORT ORDINAL="1478" NAME="?do_put@?$num_put@DV?$ostreambuf_iterator@DU?$char_traits@D@std@@@std@@@std@@MBE?AV?$ostreambuf_iterator@DU?$char_traits@D@std@@@2@V32@AAVios_base@2@DO@Z" PURGE="28" COMMENT="" />
    <EXPORT ORDINAL="1479" NAME="?do_put@?$num_put@DV?$ostreambuf_iterator@DU?$char_traits@D@std@@@std@@@std@@MBE?AV?$ostreambuf_iterator@DU?$char_traits@D@std@@@2@V32@AAVios_base@2@DPBX@Z" PURGE="24" COMMENT="" />
    <EXPORT ORDINAL="1480" NAME="?do_put@?$num_put@DV?$ostreambuf_iterator@DU?$char_traits@D@std@@@std@@@std@@MBE?AV?$ostreambuf_iterator@DU?$char_traits@D@std@@@2@V32@AAVios_base@2@D_N@Z" PURGE="24" COMMENT="" />
    <EXPORT ORDINAL="1481" NAME="?do_put@?$num_put@GV?$ostreambuf_iterator@GU?$char_traits@G@std@@@std@@@std@@MBE?AV?$ostreambuf_iterator@GU?$char_traits@G@std@@@2@V32@AAVios_base@2@GJ@Z" PURGE="24" COMMENT="" />
    <EXPORT ORDINAL="1482" NAME="?do_put@?$num_put@GV?$ostreambuf_iterator@GU?$char_traits@G@std@@@std@@@std@@MBE?AV?$ostreambuf_iterator@GU?$char_traits@G@std@@@2@V32@AAVios_base@2@GK@Z" PURGE="24" COMMENT="" />
    <EXPORT ORDINAL="1483" NAME="?do_put@?$num_put@GV?$ostreambuf_iterator@GU?$char_traits@G@std@@@std@@@std@@MBE?AV?$ostreambuf_iterator@GU?$char_traits@G@std@@@2@V32@AAVios_base@2@GN@Z" PURGE="28" COMMENT="" />
    <EXPORT ORDINAL="1484" NAME="?do_put@?$num_put@GV?$ostreambuf_iterator@GU?$char_traits@G@std@@@std@@@std@@MBE?AV?$ostreambuf_iterator@GU?$char_traits@G@std@@@2@V32@AAVios_base@2@GO@Z" PURGE="28" COMMENT="" />
    <EXPORT ORDINAL="1485" NAME="?do_put@?$num_put@GV?$ostreambuf_iterator@GU?$char_traits@G@std@@@std@@@std@@MBE?AV?$ostreambuf_iterator@GU?$char_traits@G@std@@@2@V32@AAVios_base@2@GPBX@Z" PURGE="24" COMMENT="" />
    <EXPORT ORDINAL="1486" NAME="?do_put@?$num_put@GV?$ostreambuf_iterator@GU?$char_traits@G@std@@@std@@@std@@MBE?AV?$ostreambuf_iterator@GU?$char_traits@G@std@@@2@V32@AAVios_base@2@G_N@Z" PURGE="24" COMMENT="" />
    <EXPORT ORDINAL="1487" NAME="?do_put@?$time_put@DV?$ostreambuf_iterator@DU?$char_traits@D@std@@@std@@@std@@MBE?AV?$ostreambuf_iterator@DU?$char_traits@D@std@@@2@V32@AAVios_base@2@PBUtm@@DD@Z" PURGE="28" COMMENT="" />
    <EXPORT ORDINAL="1488" NAME="?do_put@?$time_put@GV?$ostreambuf_iterator@GU?$char_traits@G@std@@@std@@@std@@MBE?AV?$ostreambuf_iterator@GU?$char_traits@G@std@@@2@V32@AAVios_base@2@PBUtm@@DD@Z" PURGE="28" COMMENT="" />
    <EXPORT ORDINAL="1489" NAME="?do_scan_is@?$ctype@G@std@@MBEPBGFPBG0@Z" PURGE="12" COMMENT="" />
    <EXPORT ORDINAL="1490" NAME="?do_scan_not@?$ctype@G@std@@MBEPBGFPBG0@Z" PURGE="12" COMMENT="" />
    <EXPORT ORDINAL="1491" NAME="?do_thousands_sep@?$_Mpunct@D@std@@MBEDXZ" PURGE="0" COMMENT="" />
    <EXPORT ORDINAL="1492" NAME="?do_thousands_sep@?$_Mpunct@G@std@@MBEGXZ" PURGE="0" COMMENT="" />
    <EXPORT ORDINAL="1493" NAME="?do_thousands_sep@?$numpunct@D@std@@MBEDXZ" PURGE="0" COMMENT="" />
    <EXPORT ORDINAL="1494" NAME="?do_thousands_sep@?$numpunct@G@std@@MBEGXZ" PURGE="0" COMMENT="" />
    <EXPORT ORDINAL="1495" NAME="?do_tolower@?$ctype@D@std@@MBEDD@Z" PURGE="4" COMMENT="" />
    <EXPORT ORDINAL="1496" NAME="?do_tolower@?$ctype@D@std@@MBEPBDPADPBD@Z" PURGE="8" COMMENT="" />
    <EXPORT ORDINAL="1497" NAME="?do_tolower@?$ctype@G@std@@MBEGG@Z" PURGE="4" COMMENT="" />
    <EXPORT ORDINAL="1498" NAME="?do_tolower@?$ctype@G@std@@MBEPBGPAGPBG@Z" PURGE="8" COMMENT="" />
    <EXPORT ORDINAL="1499" NAME="?do_toupper@?$ctype@D@std@@MBEDD@Z" PURGE="4" COMMENT="" />
    <EXPORT ORDINAL="1500" NAME="?do_toupper@?$ctype@D@std@@MBEPBDPADPBD@Z" PURGE="8" COMMENT="" />
    <EXPORT ORDINAL="1501" NAME="?do_toupper@?$ctype@G@std@@MBEGG@Z" PURGE="4" COMMENT="" />
    <EXPORT ORDINAL="1502" NAME="?do_toupper@?$ctype@G@std@@MBEPBGPAGPBG@Z" PURGE="8" COMMENT="" />
    <EXPORT ORDINAL="1503" NAME="?do_transform@?$collate@D@std@@MBE?AV?$basic_string@DU?$char_traits@D@std@@V?$allocator@D@2@@2@PBD0@Z" PURGE="12" COMMENT="" />
    <EXPORT ORDINAL="1504" NAME="?do_transform@?$collate@G@std@@MBE?AV?$basic_string@GU?$char_traits@G@std@@V?$allocator@G@2@@2@PBG0@Z" PURGE="12" COMMENT="" />
    <EXPORT ORDINAL="1505" NAME="?do_truename@?$numpunct@D@std@@MBE?AV?$basic_string@DU?$char_traits@D@std@@V?$allocator@D@2@@2@XZ" PURGE="4" COMMENT="" />
    <EXPORT ORDINAL="1506" NAME="?do_truename@?$numpunct@G@std@@MBE?AV?$basic_string@GU?$char_traits@G@std@@V?$allocator@G@2@@2@XZ" PURGE="4" COMMENT="" />
    <EXPORT ORDINAL="1507" NAME="?do_widen@?$ctype@G@std@@MBEGD@Z" PURGE="4" COMMENT="" />
    <EXPORT ORDINAL="1508" NAME="?do_widen@?$ctype@G@std@@MBEPBDPBD0PAG@Z" PURGE="12" COMMENT="" />
    <EXPORT ORDINAL="1509" NAME="?eback@?$basic_streambuf@DU?$char_traits@D@std@@@std@@IBEPADXZ" PURGE="0" COMMENT="" />
    <EXPORT ORDINAL="1510" NAME="?eback@?$basic_streambuf@GU?$char_traits@G@std@@@std@@IBEPAGXZ" PURGE="0" COMMENT="" />
    <EXPORT ORDINAL="1511" NAME="?egptr@?$basic_streambuf@DU?$char_traits@D@std@@@std@@IBEPADXZ" PURGE="0" COMMENT="" />
    <EXPORT ORDINAL="1512" NAME="?egptr@?$basic_streambuf@GU?$char_traits@G@std@@@std@@IBEPAGXZ" PURGE="0" COMMENT="" />
    <EXPORT ORDINAL="1513" NAME="?empty@?$basic_string@DU?$char_traits@D@std@@V?$allocator@D@2@@std@@QBE_NXZ" PURGE="0" COMMENT="" />
    <EXPORT ORDINAL="1514" NAME="?empty@?$basic_string@GU?$char_traits@G@std@@V?$allocator@G@2@@std@@QBE_NXZ" PURGE="0" COMMENT="" />
    <EXPORT ORDINAL="1515" NAME="?empty@locale@std@@SA?AV12@XZ" PURGE="0" COMMENT="" />
    <EXPORT ORDINAL="1516" NAME="?encoding@codecvt_base@std@@QBEHXZ" PURGE="0" COMMENT="" />
    <EXPORT ORDINAL="1517" NAME="?end@?$basic_string@DU?$char_traits@D@std@@V?$allocator@D@2@@std@@QAEPADXZ" PURGE="0" COMMENT="" />
    <EXPORT ORDINAL="1518" NAME="?end@?$basic_string@DU?$char_traits@D@std@@V?$allocator@D@2@@std@@QBEPBDXZ" PURGE="0" COMMENT="" />
    <EXPORT ORDINAL="1519" NAME="?end@?$basic_string@GU?$char_traits@G@std@@V?$allocator@G@2@@std@@QAEPAGXZ" PURGE="0" COMMENT="" />
    <EXPORT ORDINAL="1520" NAME="?end@?$basic_string@GU?$char_traits@G@std@@V?$allocator@G@2@@std@@QBEPBGXZ" PURGE="0" COMMENT="" />
    <EXPORT ORDINAL="1521" NAME="?endl@std@@YAAAV?$basic_ostream@DU?$char_traits@D@std@@@1@AAV21@@Z" PURGE="0" COMMENT="" />
    <EXPORT ORDINAL="1522" NAME="?endl@std@@YAAAV?$basic_ostream@GU?$char_traits@G@std@@@1@AAV21@@Z" PURGE="0" COMMENT="" />
    <EXPORT ORDINAL="1523" NAME="?ends@std@@YAAAV?$basic_ostream@DU?$char_traits@D@std@@@1@AAV21@@Z" PURGE="0" COMMENT="" />
    <EXPORT ORDINAL="1524" NAME="?ends@std@@YAAAV?$basic_ostream@GU?$char_traits@G@std@@@1@AAV21@@Z" PURGE="0" COMMENT="" />
    <EXPORT ORDINAL="1525" NAME="?eof@?$char_traits@D@std@@SAHXZ" PURGE="0" COMMENT="" />
    <EXPORT ORDINAL="1526" NAME="?eof@?$char_traits@G@std@@SAGXZ" PURGE="0" COMMENT="" />
    <EXPORT ORDINAL="1527" NAME="?eof@ios_base@std@@QBE_NXZ" PURGE="0" COMMENT="" />
    <EXPORT ORDINAL="1528" NAME="?epptr@?$basic_streambuf@DU?$char_traits@D@std@@@std@@IBEPADXZ" PURGE="0" COMMENT="" />
    <EXPORT ORDINAL="1529" NAME="?epptr@?$basic_streambuf@GU?$char_traits@G@std@@@std@@IBEPAGXZ" PURGE="0" COMMENT="" />
    <EXPORT ORDINAL="1530" NAME="?epsilon@?$numeric_limits@C@std@@SACXZ" PURGE="0" COMMENT="" />
    <EXPORT ORDINAL="1531" NAME="?epsilon@?$numeric_limits@D@std@@SADXZ" PURGE="0" COMMENT="" />
    <EXPORT ORDINAL="1532" NAME="?epsilon@?$numeric_limits@E@std@@SAEXZ" PURGE="0" COMMENT="" />
    <EXPORT ORDINAL="1533" NAME="?epsilon@?$numeric_limits@F@std@@SAFXZ" PURGE="0" COMMENT="" />
    <EXPORT ORDINAL="1534" NAME="?epsilon@?$numeric_limits@G@std@@SAGXZ" PURGE="0" COMMENT="" />
    <EXPORT ORDINAL="1535" NAME="?epsilon@?$numeric_limits@H@std@@SAHXZ" PURGE="0" COMMENT="" />
    <EXPORT ORDINAL="1536" NAME="?epsilon@?$numeric_limits@I@std@@SAIXZ" PURGE="0" COMMENT="" />
    <EXPORT ORDINAL="1537" NAME="?epsilon@?$numeric_limits@J@std@@SAJXZ" PURGE="0" COMMENT="" />
    <EXPORT ORDINAL="1538" NAME="?epsilon@?$numeric_limits@K@std@@SAKXZ" PURGE="0" COMMENT="" />
    <EXPORT ORDINAL="1539" NAME="?epsilon@?$numeric_limits@M@std@@SAMXZ" PURGE="0" COMMENT="" />
    <EXPORT ORDINAL="1540" NAME="?epsilon@?$numeric_limits@N@std@@SANXZ" PURGE="0" COMMENT="" />
    <EXPORT ORDINAL="1541" NAME="?epsilon@?$numeric_limits@O@std@@SAOXZ" PURGE="0" COMMENT="" />
    <EXPORT ORDINAL="1542" NAME="?epsilon@?$numeric_limits@_N@std@@SA_NXZ" PURGE="0" COMMENT="" />
    <EXPORT ORDINAL="1543" NAME="?eq@?$char_traits@D@std@@SA_NABD0@Z" PURGE="0" COMMENT="" />
    <EXPORT ORDINAL="1544" NAME="?eq@?$char_traits@G@std@@SA_NABG0@Z" PURGE="0" COMMENT="" />
    <EXPORT ORDINAL="1545" NAME="?eq_int_type@?$char_traits@D@std@@SA_NABH0@Z" PURGE="0" COMMENT="" />
    <EXPORT ORDINAL="1546" NAME="?eq_int_type@?$char_traits@G@std@@SA_NABG0@Z" PURGE="0" COMMENT="" />
    <EXPORT ORDINAL="1547" NAME="?erase@?$basic_string@DU?$char_traits@D@std@@V?$allocator@D@2@@std@@QAEAAV12@II@Z" PURGE="8" COMMENT="" />
    <EXPORT ORDINAL="1548" NAME="?erase@?$basic_string@DU?$char_traits@D@std@@V?$allocator@D@2@@std@@QAEPADPAD0@Z" PURGE="8" COMMENT="" />
    <EXPORT ORDINAL="1549" NAME="?erase@?$basic_string@DU?$char_traits@D@std@@V?$allocator@D@2@@std@@QAEPADPAD@Z" PURGE="4" COMMENT="" />
    <EXPORT ORDINAL="1550" NAME="?erase@?$basic_string@GU?$char_traits@G@std@@V?$allocator@G@2@@std@@QAEAAV12@II@Z" PURGE="8" COMMENT="" />
    <EXPORT ORDINAL="1551" NAME="?erase@?$basic_string@GU?$char_traits@G@std@@V?$allocator@G@2@@std@@QAEPAGPAG0@Z" PURGE="8" COMMENT="" />
    <EXPORT ORDINAL="1552" NAME="?erase@?$basic_string@GU?$char_traits@G@std@@V?$allocator@G@2@@std@@QAEPAGPAG@Z" PURGE="4" COMMENT="" />
    <EXPORT ORDINAL="1553" NAME="?exceptions@ios_base@std@@QAEXF@Z" PURGE="4" COMMENT="" />
    <EXPORT ORDINAL="1554" NAME="?exceptions@ios_base@std@@QAEXH@Z" PURGE="4" COMMENT="" />
    <EXPORT ORDINAL="1555" NAME="?exceptions@ios_base@std@@QBEHXZ" PURGE="0" COMMENT="" />
    <EXPORT ORDINAL="1556" NAME="?exp@?$_Ctr@M@std@@SAMM@Z" PURGE="0" COMMENT="" />
    <EXPORT ORDINAL="1557" NAME="?exp@?$_Ctr@N@std@@SANN@Z" PURGE="-1" COMMENT="" />
    <EXPORT ORDINAL="1558" NAME="?exp@?$_Ctr@O@std@@SAOO@Z" PURGE="-1" COMMENT="" />
    <EXPORT ORDINAL="1559" NAME="??$exp@M@std@@YA?AV?$complex@M@0@ABV10@@Z" PURGE="0" COMMENT="" />
    <EXPORT ORDINAL="1560" NAME="??$exp@N@std@@YA?AV?$complex@N@0@ABV10@@Z" PURGE="0" COMMENT="" />
    <EXPORT ORDINAL="1561" NAME="??$exp@O@std@@YA?AV?$complex@O@0@ABV10@@Z" PURGE="0" COMMENT="" />
    <EXPORT ORDINAL="1562" NAME="?fail@ios_base@std@@QBE_NXZ" PURGE="0" COMMENT="" />
    <EXPORT ORDINAL="1563" NAME="?falsename@?$numpunct@D@std@@QBE?AV?$basic_string@DU?$char_traits@D@std@@V?$allocator@D@2@@2@XZ" PURGE="4" COMMENT="" />
    <EXPORT ORDINAL="1564" NAME="?falsename@?$numpunct@G@std@@QBE?AV?$basic_string@GU?$char_traits@G@std@@V?$allocator@G@2@@2@XZ" PURGE="4" COMMENT="" />
    <EXPORT ORDINAL="1565" NAME="?fill@?$basic_ios@DU?$char_traits@D@std@@@std@@QAEDD@Z" PURGE="4" COMMENT="" />
    <EXPORT ORDINAL="1566" NAME="?fill@?$basic_ios@DU?$char_traits@D@std@@@std@@QBEDXZ" PURGE="0" COMMENT="" />
    <EXPORT ORDINAL="1567" NAME="?fill@?$basic_ios@GU?$char_traits@G@std@@@std@@QAEGG@Z" PURGE="4" COMMENT="" />
    <EXPORT ORDINAL="1568" NAME="?fill@?$basic_ios@GU?$char_traits@G@std@@@std@@QBEGXZ" PURGE="0" COMMENT="" />
    <EXPORT ORDINAL="1569" NAME="?find@?$basic_string@DU?$char_traits@D@std@@V?$allocator@D@2@@std@@QBEIABV12@I@Z" PURGE="8" COMMENT="" />
    <EXPORT ORDINAL="1570" NAME="?find@?$basic_string@DU?$char_traits@D@std@@V?$allocator@D@2@@std@@QBEIDI@Z" PURGE="8" COMMENT="" />
    <EXPORT ORDINAL="1571" NAME="?find@?$basic_string@DU?$char_traits@D@std@@V?$allocator@D@2@@std@@QBEIPBDI@Z" PURGE="8" COMMENT="" />
    <EXPORT ORDINAL="1572" NAME="?find@?$basic_string@DU?$char_traits@D@std@@V?$allocator@D@2@@std@@QBEIPBDII@Z" PURGE="12" COMMENT="" />
    <EXPORT ORDINAL="1573" NAME="?find@?$basic_string@GU?$char_traits@G@std@@V?$allocator@G@2@@std@@QBEIABV12@I@Z" PURGE="8" COMMENT="" />
    <EXPORT ORDINAL="1574" NAME="?find@?$basic_string@GU?$char_traits@G@std@@V?$allocator@G@2@@std@@QBEIGI@Z" PURGE="8" COMMENT="" />
    <EXPORT ORDINAL="1575" NAME="?find@?$basic_string@GU?$char_traits@G@std@@V?$allocator@G@2@@std@@QBEIPBGI@Z" PURGE="8" COMMENT="" />
    <EXPORT ORDINAL="1576" NAME="?find@?$basic_string@GU?$char_traits@G@std@@V?$allocator@G@2@@std@@QBEIPBGII@Z" PURGE="12" COMMENT="" />
    <EXPORT ORDINAL="1577" NAME="?find@?$char_traits@D@std@@SAPBDPBDIABD@Z" PURGE="0" COMMENT="" />
    <EXPORT ORDINAL="1578" NAME="?find@?$char_traits@G@std@@SAPBGPBGIABG@Z" PURGE="0" COMMENT="" />
    <EXPORT ORDINAL="1579" NAME="?find_first_not_of@?$basic_string@DU?$char_traits@D@std@@V?$allocator@D@2@@std@@QBEIABV12@I@Z" PURGE="8" COMMENT="" />
    <EXPORT ORDINAL="1580" NAME="?find_first_not_of@?$basic_string@DU?$char_traits@D@std@@V?$allocator@D@2@@std@@QBEIDI@Z" PURGE="8" COMMENT="" />
    <EXPORT ORDINAL="1581" NAME="?find_first_not_of@?$basic_string@DU?$char_traits@D@std@@V?$allocator@D@2@@std@@QBEIPBDI@Z" PURGE="8" COMMENT="" />
    <EXPORT ORDINAL="1582" NAME="?find_first_not_of@?$basic_string@DU?$char_traits@D@std@@V?$allocator@D@2@@std@@QBEIPBDII@Z" PURGE="12" COMMENT="" />
    <EXPORT ORDINAL="1583" NAME="?find_first_not_of@?$basic_string@GU?$char_traits@G@std@@V?$allocator@G@2@@std@@QBEIABV12@I@Z" PURGE="8" COMMENT="" />
    <EXPORT ORDINAL="1584" NAME="?find_first_not_of@?$basic_string@GU?$char_traits@G@std@@V?$allocator@G@2@@std@@QBEIGI@Z" PURGE="8" COMMENT="" />
    <EXPORT ORDINAL="1585" NAME="?find_first_not_of@?$basic_string@GU?$char_traits@G@std@@V?$allocator@G@2@@std@@QBEIPBGI@Z" PURGE="8" COMMENT="" />
    <EXPORT ORDINAL="1586" NAME="?find_first_not_of@?$basic_string@GU?$char_traits@G@std@@V?$allocator@G@2@@std@@QBEIPBGII@Z" PURGE="12" COMMENT="" />
    <EXPORT ORDINAL="1587" NAME="?find_first_of@?$basic_string@DU?$char_traits@D@std@@V?$allocator@D@2@@std@@QBEIABV12@I@Z" PURGE="8" COMMENT="" />
    <EXPORT ORDINAL="1588" NAME="?find_first_of@?$basic_string@DU?$char_traits@D@std@@V?$allocator@D@2@@std@@QBEIDI@Z" PURGE="8" COMMENT="" />
    <EXPORT ORDINAL="1589" NAME="?find_first_of@?$basic_string@DU?$char_traits@D@std@@V?$allocator@D@2@@std@@QBEIPBDI@Z" PURGE="8" COMMENT="" />
    <EXPORT ORDINAL="1590" NAME="?find_first_of@?$basic_string@DU?$char_traits@D@std@@V?$allocator@D@2@@std@@QBEIPBDII@Z" PURGE="12" COMMENT="" />
    <EXPORT ORDINAL="1591" NAME="?find_first_of@?$basic_string@GU?$char_traits@G@std@@V?$allocator@G@2@@std@@QBEIABV12@I@Z" PURGE="8" COMMENT="" />
    <EXPORT ORDINAL="1592" NAME="?find_first_of@?$basic_string@GU?$char_traits@G@std@@V?$allocator@G@2@@std@@QBEIGI@Z" PURGE="8" COMMENT="" />
    <EXPORT ORDINAL="1593" NAME="?find_first_of@?$basic_string@GU?$char_traits@G@std@@V?$allocator@G@2@@std@@QBEIPBGI@Z" PURGE="8" COMMENT="" />
    <EXPORT ORDINAL="1594" NAME="?find_first_of@?$basic_string@GU?$char_traits@G@std@@V?$allocator@G@2@@std@@QBEIPBGII@Z" PURGE="12" COMMENT="" />
    <EXPORT ORDINAL="1595" NAME="?find_last_not_of@?$basic_string@DU?$char_traits@D@std@@V?$allocator@D@2@@std@@QBEIABV12@I@Z" PURGE="8" COMMENT="" />
    <EXPORT ORDINAL="1596" NAME="?find_last_not_of@?$basic_string@DU?$char_traits@D@std@@V?$allocator@D@2@@std@@QBEIDI@Z" PURGE="8" COMMENT="" />
    <EXPORT ORDINAL="1597" NAME="?find_last_not_of@?$basic_string@DU?$char_traits@D@std@@V?$allocator@D@2@@std@@QBEIPBDI@Z" PURGE="8" COMMENT="" />
    <EXPORT ORDINAL="1598" NAME="?find_last_not_of@?$basic_string@DU?$char_traits@D@std@@V?$allocator@D@2@@std@@QBEIPBDII@Z" PURGE="12" COMMENT="" />
    <EXPORT ORDINAL="1599" NAME="?find_last_not_of@?$basic_string@GU?$char_traits@G@std@@V?$allocator@G@2@@std@@QBEIABV12@I@Z" PURGE="8" COMMENT="" />
    <EXPORT ORDINAL="1600" NAME="?find_last_not_of@?$basic_string@GU?$char_traits@G@std@@V?$allocator@G@2@@std@@QBEIGI@Z" PURGE="8" COMMENT="" />
    <EXPORT ORDINAL="1601" NAME="?find_last_not_of@?$basic_string@GU?$char_traits@G@std@@V?$allocator@G@2@@std@@QBEIPBGI@Z" PURGE="8" COMMENT="" />
    <EXPORT ORDINAL="1602" NAME="?find_last_not_of@?$basic_string@GU?$char_traits@G@std@@V?$allocator@G@2@@std@@QBEIPBGII@Z" PURGE="12" COMMENT="" />
    <EXPORT ORDINAL="1603" NAME="?find_last_of@?$basic_string@DU?$char_traits@D@std@@V?$allocator@D@2@@std@@QBEIABV12@I@Z" PURGE="8" COMMENT="" />
    <EXPORT ORDINAL="1604" NAME="?find_last_of@?$basic_string@DU?$char_traits@D@std@@V?$allocator@D@2@@std@@QBEIDI@Z" PURGE="8" COMMENT="" />
    <EXPORT ORDINAL="1605" NAME="?find_last_of@?$basic_string@DU?$char_traits@D@std@@V?$allocator@D@2@@std@@QBEIPBDI@Z" PURGE="8" COMMENT="" />
    <EXPORT ORDINAL="1606" NAME="?find_last_of@?$basic_string@DU?$char_traits@D@std@@V?$allocator@D@2@@std@@QBEIPBDII@Z" PURGE="12" COMMENT="" />
    <EXPORT ORDINAL="1607" NAME="?find_last_of@?$basic_string@GU?$char_traits@G@std@@V?$allocator@G@2@@std@@QBEIABV12@I@Z" PURGE="8" COMMENT="" />
    <EXPORT ORDINAL="1608" NAME="?find_last_of@?$basic_string@GU?$char_traits@G@std@@V?$allocator@G@2@@std@@QBEIGI@Z" PURGE="8" COMMENT="" />
    <EXPORT ORDINAL="1609" NAME="?find_last_of@?$basic_string@GU?$char_traits@G@std@@V?$allocator@G@2@@std@@QBEIPBGI@Z" PURGE="8" COMMENT="" />
    <EXPORT ORDINAL="1610" NAME="?find_last_of@?$basic_string@GU?$char_traits@G@std@@V?$allocator@G@2@@std@@QBEIPBGII@Z" PURGE="12" COMMENT="" />
    <EXPORT ORDINAL="1611" NAME="?flags@ios_base@std@@QAEHH@Z" PURGE="4" COMMENT="" />
    <EXPORT ORDINAL="1612" NAME="?flags@ios_base@std@@QBEHXZ" PURGE="0" COMMENT="" />
    <EXPORT ORDINAL="1613" NAME="?flush@?$basic_ostream@DU?$char_traits@D@std@@@std@@QAEAAV12@XZ" PURGE="0" COMMENT="" />
    <EXPORT ORDINAL="1614" NAME="?flush@?$basic_ostream@GU?$char_traits@G@std@@@std@@QAEAAV12@XZ" PURGE="0" COMMENT="" />
    <EXPORT ORDINAL="1615" NAME="?flush@std@@YAAAV?$basic_ostream@DU?$char_traits@D@std@@@1@AAV21@@Z" PURGE="0" COMMENT="" />
    <EXPORT ORDINAL="1616" NAME="?flush@std@@YAAAV?$basic_ostream@GU?$char_traits@G@std@@@1@AAV21@@Z" PURGE="0" COMMENT="" />
    <EXPORT ORDINAL="1617" NAME="?frac_digits@?$_Mpunct@D@std@@QBEHXZ" PURGE="0" COMMENT="" />
    <EXPORT ORDINAL="1618" NAME="?frac_digits@?$_Mpunct@G@std@@QBEHXZ" PURGE="0" COMMENT="" />
    <EXPORT ORDINAL="1619" NAME="?freeze@strstreambuf@std@@QAEX_N@Z" PURGE="4" COMMENT="" />
    <EXPORT ORDINAL="1620" NAME="?gbump@?$basic_streambuf@DU?$char_traits@D@std@@@std@@IAEXH@Z" PURGE="4" COMMENT="" />
    <EXPORT ORDINAL="1621" NAME="?gbump@?$basic_streambuf@GU?$char_traits@G@std@@@std@@IAEXH@Z" PURGE="4" COMMENT="" />
    <EXPORT ORDINAL="1622" NAME="?gcount@?$basic_istream@DU?$char_traits@D@std@@@std@@QBEHXZ" PURGE="0" COMMENT="" />
    <EXPORT ORDINAL="1623" NAME="?gcount@?$basic_istream@GU?$char_traits@G@std@@@std@@QBEHXZ" PURGE="0" COMMENT="" />
    <EXPORT ORDINAL="1624" NAME="?get@?$basic_istream@DU?$char_traits@D@std@@@std@@QAEAAV12@AAD@Z" PURGE="4" COMMENT="" />
    <EXPORT ORDINAL="1625" NAME="?get@?$basic_istream@DU?$char_traits@D@std@@@std@@QAEAAV12@AAV?$basic_streambuf@DU?$char_traits@D@std@@@2@@Z" PURGE="4" COMMENT="" />
    <EXPORT ORDINAL="1626" NAME="?get@?$basic_istream@DU?$char_traits@D@std@@@std@@QAEAAV12@AAV?$basic_streambuf@DU?$char_traits@D@std@@@2@D@Z" PURGE="8" COMMENT="" />
    <EXPORT ORDINAL="1627" NAME="?get@?$basic_istream@DU?$char_traits@D@std@@@std@@QAEAAV12@PADH@Z" PURGE="8" COMMENT="" />
    <EXPORT ORDINAL="1628" NAME="?get@?$basic_istream@DU?$char_traits@D@std@@@std@@QAEAAV12@PADHD@Z" PURGE="12" COMMENT="" />
    <EXPORT ORDINAL="1629" NAME="?get@?$basic_istream@DU?$char_traits@D@std@@@std@@QAEHXZ" PURGE="0" COMMENT="" />
    <EXPORT ORDINAL="1630" NAME="?get@?$basic_istream@GU?$char_traits@G@std@@@std@@QAEAAV12@AAG@Z" PURGE="4" COMMENT="" />
    <EXPORT ORDINAL="1631" NAME="?get@?$basic_istream@GU?$char_traits@G@std@@@std@@QAEAAV12@AAV?$basic_streambuf@GU?$char_traits@G@std@@@2@@Z" PURGE="4" COMMENT="" />
    <EXPORT ORDINAL="1632" NAME="?get@?$basic_istream@GU?$char_traits@G@std@@@std@@QAEAAV12@AAV?$basic_streambuf@GU?$char_traits@G@std@@@2@G@Z" PURGE="8" COMMENT="" />
    <EXPORT ORDINAL="1633" NAME="?get@?$basic_istream@GU?$char_traits@G@std@@@std@@QAEAAV12@PAGH@Z" PURGE="8" COMMENT="" />
    <EXPORT ORDINAL="1634" NAME="?get@?$basic_istream@GU?$char_traits@G@std@@@std@@QAEAAV12@PAGHG@Z" PURGE="12" COMMENT="" />
    <EXPORT ORDINAL="1635" NAME="?get@?$basic_istream@GU?$char_traits@G@std@@@std@@QAEGXZ" PURGE="0" COMMENT="" />
    <EXPORT ORDINAL="1636" NAME="?get@?$messages@D@std@@QBE?AV?$basic_string@DU?$char_traits@D@std@@V?$allocator@D@2@@2@HHHABV32@@Z" PURGE="20" COMMENT="" />
    <EXPORT ORDINAL="1637" NAME="?get@?$messages@G@std@@QBE?AV?$basic_string@GU?$char_traits@G@std@@V?$allocator@G@2@@2@HHHABV32@@Z" PURGE="20" COMMENT="" />
    <EXPORT ORDINAL="1638" NAME="?get@?$money_get@DV?$istreambuf_iterator@DU?$char_traits@D@std@@@std@@@std@@QBE?AV?$istreambuf_iterator@DU?$char_traits@D@std@@@2@V32@0_NAAVios_base@2@AAHAAO@Z" PURGE="36" COMMENT="" />
    <EXPORT ORDINAL="1639" NAME="?get@?$money_get@DV?$istreambuf_iterator@DU?$char_traits@D@std@@@std@@@std@@QBE?AV?$istreambuf_iterator@DU?$char_traits@D@std@@@2@V32@0_NAAVios_base@2@AAHAAV?$basic_string@DU?$char_traits@D@std@@V?$allocator@D@2@@2@@Z" PURGE="36" COMMENT="" />
    <EXPORT ORDINAL="1640" NAME="?get@?$money_get@GV?$istreambuf_iterator@GU?$char_traits@G@std@@@std@@@std@@QBE?AV?$istreambuf_iterator@GU?$char_traits@G@std@@@2@V32@0_NAAVios_base@2@AAHAAO@Z" PURGE="36" COMMENT="" />
    <EXPORT ORDINAL="1641" NAME="?get@?$money_get@GV?$istreambuf_iterator@GU?$char_traits@G@std@@@std@@@std@@QBE?AV?$istreambuf_iterator@GU?$char_traits@G@std@@@2@V32@0_NAAVios_base@2@AAHAAV?$basic_string@GU?$char_traits@G@std@@V?$allocator@G@2@@2@@Z" PURGE="36" COMMENT="" />
    <EXPORT ORDINAL="1642" NAME="?get@?$num_get@DV?$istreambuf_iterator@DU?$char_traits@D@std@@@std@@@std@@QBE?AV?$istreambuf_iterator@DU?$char_traits@D@std@@@2@V32@0AAVios_base@2@AAHAAG@Z" PURGE="32" COMMENT="" />
    <EXPORT ORDINAL="1643" NAME="?get@?$num_get@DV?$istreambuf_iterator@DU?$char_traits@D@std@@@std@@@std@@QBE?AV?$istreambuf_iterator@DU?$char_traits@D@std@@@2@V32@0AAVios_base@2@AAHAAI@Z" PURGE="32" COMMENT="" />
    <EXPORT ORDINAL="1644" NAME="?get@?$num_get@DV?$istreambuf_iterator@DU?$char_traits@D@std@@@std@@@std@@QBE?AV?$istreambuf_iterator@DU?$char_traits@D@std@@@2@V32@0AAVios_base@2@AAHAAJ@Z" PURGE="32" COMMENT="" />
    <EXPORT ORDINAL="1645" NAME="?get@?$num_get@DV?$istreambuf_iterator@DU?$char_traits@D@std@@@std@@@std@@QBE?AV?$istreambuf_iterator@DU?$char_traits@D@std@@@2@V32@0AAVios_base@2@AAHAAK@Z" PURGE="32" COMMENT="" />
    <EXPORT ORDINAL="1646" NAME="?get@?$num_get@DV?$istreambuf_iterator@DU?$char_traits@D@std@@@std@@@std@@QBE?AV?$istreambuf_iterator@DU?$char_traits@D@std@@@2@V32@0AAVios_base@2@AAHAAM@Z" PURGE="32" COMMENT="" />
    <EXPORT ORDINAL="1647" NAME="?get@?$num_get@DV?$istreambuf_iterator@DU?$char_traits@D@std@@@std@@@std@@QBE?AV?$istreambuf_iterator@DU?$char_traits@D@std@@@2@V32@0AAVios_base@2@AAHAAN@Z" PURGE="32" COMMENT="" />
    <EXPORT ORDINAL="1648" NAME="?get@?$num_get@DV?$istreambuf_iterator@DU?$char_traits@D@std@@@std@@@std@@QBE?AV?$istreambuf_iterator@DU?$char_traits@D@std@@@2@V32@0AAVios_base@2@AAHAAO@Z" PURGE="32" COMMENT="" />
    <EXPORT ORDINAL="1649" NAME="?get@?$num_get@DV?$istreambuf_iterator@DU?$char_traits@D@std@@@std@@@std@@QBE?AV?$istreambuf_iterator@DU?$char_traits@D@std@@@2@V32@0AAVios_base@2@AAHAAPAX@Z" PURGE="32" COMMENT="" />
    <EXPORT ORDINAL="1650" NAME="?get@?$num_get@DV?$istreambuf_iterator@DU?$char_traits@D@std@@@std@@@std@@QBE?AV?$istreambuf_iterator@DU?$char_traits@D@std@@@2@V32@0AAVios_base@2@AAHAA_N@Z" PURGE="32" COMMENT="" />
    <EXPORT ORDINAL="1651" NAME="?get@?$num_get@GV?$istreambuf_iterator@GU?$char_traits@G@std@@@std@@@std@@QBE?AV?$istreambuf_iterator@GU?$char_traits@G@std@@@2@V32@0AAVios_base@2@AAHAAG@Z" PURGE="32" COMMENT="" />
    <EXPORT ORDINAL="1652" NAME="?get@?$num_get@GV?$istreambuf_iterator@GU?$char_traits@G@std@@@std@@@std@@QBE?AV?$istreambuf_iterator@GU?$char_traits@G@std@@@2@V32@0AAVios_base@2@AAHAAI@Z" PURGE="32" COMMENT="" />
    <EXPORT ORDINAL="1653" NAME="?get@?$num_get@GV?$istreambuf_iterator@GU?$char_traits@G@std@@@std@@@std@@QBE?AV?$istreambuf_iterator@GU?$char_traits@G@std@@@2@V32@0AAVios_base@2@AAHAAJ@Z" PURGE="32" COMMENT="" />
    <EXPORT ORDINAL="1654" NAME="?get@?$num_get@GV?$istreambuf_iterator@GU?$char_traits@G@std@@@std@@@std@@QBE?AV?$istreambuf_iterator@GU?$char_traits@G@std@@@2@V32@0AAVios_base@2@AAHAAK@Z" PURGE="32" COMMENT="" />
    <EXPORT ORDINAL="1655" NAME="?get@?$num_get@GV?$istreambuf_iterator@GU?$char_traits@G@std@@@std@@@std@@QBE?AV?$istreambuf_iterator@GU?$char_traits@G@std@@@2@V32@0AAVios_base@2@AAHAAM@Z" PURGE="32" COMMENT="" />
    <EXPORT ORDINAL="1656" NAME="?get@?$num_get@GV?$istreambuf_iterator@GU?$char_traits@G@std@@@std@@@std@@QBE?AV?$istreambuf_iterator@GU?$char_traits@G@std@@@2@V32@0AAVios_base@2@AAHAAN@Z" PURGE="32" COMMENT="" />
    <EXPORT ORDINAL="1657" NAME="?get@?$num_get@GV?$istreambuf_iterator@GU?$char_traits@G@std@@@std@@@std@@QBE?AV?$istreambuf_iterator@GU?$char_traits@G@std@@@2@V32@0AAVios_base@2@AAHAAO@Z" PURGE="32" COMMENT="" />
    <EXPORT ORDINAL="1658" NAME="?get@?$num_get@GV?$istreambuf_iterator@GU?$char_traits@G@std@@@std@@@std@@QBE?AV?$istreambuf_iterator@GU?$char_traits@G@std@@@2@V32@0AAVios_base@2@AAHAAPAX@Z" PURGE="32" COMMENT="" />
    <EXPORT ORDINAL="1659" NAME="?get@?$num_get@GV?$istreambuf_iterator@GU?$char_traits@G@std@@@std@@@std@@QBE?AV?$istreambuf_iterator@GU?$char_traits@G@std@@@2@V32@0AAVios_base@2@AAHAA_N@Z" PURGE="32" COMMENT="" />
    <EXPORT ORDINAL="1660" NAME="?get_allocator@?$basic_string@DU?$char_traits@D@std@@V?$allocator@D@2@@std@@QBE?AV?$allocator@D@2@XZ" PURGE="4" COMMENT="" />
    <EXPORT ORDINAL="1661" NAME="?get_allocator@?$basic_string@GU?$char_traits@G@std@@V?$allocator@G@2@@std@@QBE?AV?$allocator@G@2@XZ" PURGE="4" COMMENT="" />
    <EXPORT ORDINAL="1662" NAME="?get_date@?$time_get@DV?$istreambuf_iterator@DU?$char_traits@D@std@@@std@@@std@@QBE?AV?$istreambuf_iterator@DU?$char_traits@D@std@@@2@V32@0AAVios_base@2@AAHPAUtm@@@Z" PURGE="32" COMMENT="" />
    <EXPORT ORDINAL="1663" NAME="?get_date@?$time_get@GV?$istreambuf_iterator@GU?$char_traits@G@std@@@std@@@std@@QBE?AV?$istreambuf_iterator@GU?$char_traits@G@std@@@2@V32@0AAVios_base@2@AAHPAUtm@@@Z" PURGE="32" COMMENT="" />
    <EXPORT ORDINAL="1664" NAME="?get_monthname@?$time_get@DV?$istreambuf_iterator@DU?$char_traits@D@std@@@std@@@std@@QBE?AV?$istreambuf_iterator@DU?$char_traits@D@std@@@2@V32@0AAVios_base@2@AAHPAUtm@@@Z" PURGE="32" COMMENT="" />
    <EXPORT ORDINAL="1665" NAME="?get_monthname@?$time_get@GV?$istreambuf_iterator@GU?$char_traits@G@std@@@std@@@std@@QBE?AV?$istreambuf_iterator@GU?$char_traits@G@std@@@2@V32@0AAVios_base@2@AAHPAUtm@@@Z" PURGE="32" COMMENT="" />
    <EXPORT ORDINAL="1666" NAME="?get_time@?$time_get@DV?$istreambuf_iterator@DU?$char_traits@D@std@@@std@@@std@@QBE?AV?$istreambuf_iterator@DU?$char_traits@D@std@@@2@V32@0AAVios_base@2@AAHPAUtm@@@Z" PURGE="32" COMMENT="" />
    <EXPORT ORDINAL="1667" NAME="?get_time@?$time_get@GV?$istreambuf_iterator@GU?$char_traits@G@std@@@std@@@std@@QBE?AV?$istreambuf_iterator@GU?$char_traits@G@std@@@2@V32@0AAVios_base@2@AAHPAUtm@@@Z" PURGE="32" COMMENT="" />
    <EXPORT ORDINAL="1668" NAME="?get_weekday@?$time_get@DV?$istreambuf_iterator@DU?$char_traits@D@std@@@std@@@std@@QBE?AV?$istreambuf_iterator@DU?$char_traits@D@std@@@2@V32@0AAVios_base@2@AAHPAUtm@@@Z" PURGE="32" COMMENT="" />
    <EXPORT ORDINAL="1669" NAME="?get_weekday@?$time_get@GV?$istreambuf_iterator@GU?$char_traits@G@std@@@std@@@std@@QBE?AV?$istreambuf_iterator@GU?$char_traits@G@std@@@2@V32@0AAVios_base@2@AAHPAUtm@@@Z" PURGE="32" COMMENT="" />
    <EXPORT ORDINAL="1670" NAME="?get_year@?$time_get@DV?$istreambuf_iterator@DU?$char_traits@D@std@@@std@@@std@@QBE?AV?$istreambuf_iterator@DU?$char_traits@D@std@@@2@V32@0AAVios_base@2@AAHPAUtm@@@Z" PURGE="32" COMMENT="" />
    <EXPORT ORDINAL="1671" NAME="?get_year@?$time_get@GV?$istreambuf_iterator@GU?$char_traits@G@std@@@std@@@std@@QBE?AV?$istreambuf_iterator@GU?$char_traits@G@std@@@2@V32@0AAVios_base@2@AAHPAUtm@@@Z" PURGE="32" COMMENT="" />
    <EXPORT ORDINAL="1672" NAME="?getline@?$basic_istream@DU?$char_traits@D@std@@@std@@QAEAAV12@PADH@Z" PURGE="8" COMMENT="" />
    <EXPORT ORDINAL="1673" NAME="?getline@?$basic_istream@DU?$char_traits@D@std@@@std@@QAEAAV12@PADHD@Z" PURGE="12" COMMENT="" />
    <EXPORT ORDINAL="1674" NAME="?getline@?$basic_istream@GU?$char_traits@G@std@@@std@@QAEAAV12@PAGH@Z" PURGE="8" COMMENT="" />
    <EXPORT ORDINAL="1675" NAME="?getline@?$basic_istream@GU?$char_traits@G@std@@@std@@QAEAAV12@PAGHG@Z" PURGE="12" COMMENT="" />
    <EXPORT ORDINAL="1676" NAME="??$getline@DU?$char_traits@D@std@@V?$allocator@D@2@@std@@YAAAV?$basic_istream@DU?$char_traits@D@std@@@0@AAV10@AAV?$basic_string@DU?$char_traits@D@std@@V?$allocator@D@2@@0@@Z" PURGE="0" COMMENT="" />
    <EXPORT ORDINAL="1677" NAME="??$getline@DU?$char_traits@D@std@@V?$allocator@D@2@@std@@YAAAV?$basic_istream@DU?$char_traits@D@std@@@0@AAV10@AAV?$basic_string@DU?$char_traits@D@std@@V?$allocator@D@2@@0@D@Z" PURGE="0" COMMENT="" />
    <EXPORT ORDINAL="1678" NAME="??$getline@GU?$char_traits@G@std@@V?$allocator@G@2@@std@@YAAAV?$basic_istream@GU?$char_traits@G@std@@@0@AAV10@AAV?$basic_string@GU?$char_traits@G@std@@V?$allocator@G@2@@0@@Z" PURGE="0" COMMENT="" />
    <EXPORT ORDINAL="1679" NAME="??$getline@GU?$char_traits@G@std@@V?$allocator@G@2@@std@@YAAAV?$basic_istream@GU?$char_traits@G@std@@@0@AAV10@AAV?$basic_string@GU?$char_traits@G@std@@V?$allocator@G@2@@0@G@Z" PURGE="0" COMMENT="" />
    <EXPORT ORDINAL="1680" NAME="?getloc@?$basic_streambuf@DU?$char_traits@D@std@@@std@@QAE?AVlocale@2@XZ" PURGE="4" COMMENT="" />
    <EXPORT ORDINAL="1681" NAME="?getloc@?$basic_streambuf@GU?$char_traits@G@std@@@std@@QAE?AVlocale@2@XZ" PURGE="4" COMMENT="" />
    <EXPORT ORDINAL="1682" NAME="?getloc@ios_base@std@@QBE?AVlocale@2@XZ" PURGE="4" COMMENT="" />
    <EXPORT ORDINAL="1683" NAME="?global@locale@std@@SA?AV12@ABV12@@Z" PURGE="0" COMMENT="" />
    <EXPORT ORDINAL="1684" NAME="?good@ios_base@std@@QBE_NXZ" PURGE="0" COMMENT="" />
    <EXPORT ORDINAL="1685" NAME="?gptr@?$basic_streambuf@DU?$char_traits@D@std@@@std@@IBEPADXZ" PURGE="0" COMMENT="" />
    <EXPORT ORDINAL="1686" NAME="?gptr@?$basic_streambuf@GU?$char_traits@G@std@@@std@@IBEPAGXZ" PURGE="0" COMMENT="" />
    <EXPORT ORDINAL="1687" NAME="?grouping@?$_Mpunct@D@std@@QBE?AV?$basic_string@DU?$char_traits@D@std@@V?$allocator@D@2@@2@XZ" PURGE="4" COMMENT="" />
    <EXPORT ORDINAL="1688" NAME="?grouping@?$_Mpunct@G@std@@QBE?AV?$basic_string@DU?$char_traits@D@std@@V?$allocator@D@2@@2@XZ" PURGE="4" COMMENT="" />
    <EXPORT ORDINAL="1689" NAME="?grouping@?$numpunct@D@std@@QBE?AV?$basic_string@DU?$char_traits@D@std@@V?$allocator@D@2@@2@XZ" PURGE="4" COMMENT="" />
    <EXPORT ORDINAL="1690" NAME="?grouping@?$numpunct@G@std@@QBE?AV?$basic_string@DU?$char_traits@D@std@@V?$allocator@D@2@@2@XZ" PURGE="4" COMMENT="" />
    <EXPORT ORDINAL="1691" NAME="?hash@?$collate@D@std@@QBEJPBD0@Z" PURGE="8" COMMENT="" />
    <EXPORT ORDINAL="1692" NAME="?hash@?$collate@G@std@@QBEJPBG0@Z" PURGE="8" COMMENT="" />
    <EXPORT ORDINAL="1693" NAME="?id@?$codecvt@DDH@std@@2V0locale@2@A" PURGE="-1" COMMENT="" />
    <EXPORT ORDINAL="1694" NAME="?id@?$codecvt@GDH@std@@2V0locale@2@A" PURGE="-1" COMMENT="" />
    <EXPORT ORDINAL="1695" NAME="?id@?$collate@D@std@@2V0locale@2@A" PURGE="-1" COMMENT="" />
    <EXPORT ORDINAL="1696" NAME="?id@?$collate@G@std@@2V0locale@2@A" PURGE="-1" COMMENT="" />
    <EXPORT ORDINAL="1697" NAME="?id@?$ctype@D@std@@2V0locale@2@A" PURGE="-1" COMMENT="" />
    <EXPORT ORDINAL="1698" NAME="?id@?$ctype@G@std@@2V0locale@2@A" PURGE="-1" COMMENT="" />
    <EXPORT ORDINAL="1699" NAME="?id@?$messages@D@std@@2V0locale@2@A" PURGE="-1" COMMENT="" />
    <EXPORT ORDINAL="1700" NAME="?id@?$messages@G@std@@2V0locale@2@A" PURGE="-1" COMMENT="" />
    <EXPORT ORDINAL="1701" NAME="?id@?$money_get@DV?$istreambuf_iterator@DU?$char_traits@D@std@@@std@@@std@@2V0locale@2@A" PURGE="-1" COMMENT="" />
    <EXPORT ORDINAL="1702" NAME="?id@?$money_get@GV?$istreambuf_iterator@GU?$char_traits@G@std@@@std@@@std@@2V0locale@2@A" PURGE="-1" COMMENT="" />
    <EXPORT ORDINAL="1703" NAME="?id@?$money_put@DV?$ostreambuf_iterator@DU?$char_traits@D@std@@@std@@@std@@2V0locale@2@A" PURGE="-1" COMMENT="" />
    <EXPORT ORDINAL="1704" NAME="?id@?$money_put@GV?$ostreambuf_iterator@GU?$char_traits@G@std@@@std@@@std@@2V0locale@2@A" PURGE="-1" COMMENT="" />
    <EXPORT ORDINAL="1705" NAME="?id@?$moneypunct@D$00@std@@2V0locale@2@A" PURGE="-1" COMMENT="" />
    <EXPORT ORDINAL="1706" NAME="?id@?$moneypunct@D$0A@@std@@2V0locale@2@A" PURGE="-1" COMMENT="" />
    <EXPORT ORDINAL="1707" NAME="?id@?$moneypunct@G$00@std@@2V0locale@2@A" PURGE="-1" COMMENT="" />
    <EXPORT ORDINAL="1708" NAME="?id@?$moneypunct@G$0A@@std@@2V0locale@2@A" PURGE="-1" COMMENT="" />
    <EXPORT ORDINAL="1709" NAME="?id@?$num_get@DV?$istreambuf_iterator@DU?$char_traits@D@std@@@std@@@std@@2V0locale@2@A" PURGE="-1" COMMENT="" />
    <EXPORT ORDINAL="1710" NAME="?id@?$num_get@GV?$istreambuf_iterator@GU?$char_traits@G@std@@@std@@@std@@2V0locale@2@A" PURGE="-1" COMMENT="" />
    <EXPORT ORDINAL="1711" NAME="?id@?$num_put@DV?$ostreambuf_iterator@DU?$char_traits@D@std@@@std@@@std@@2V0locale@2@A" PURGE="-1" COMMENT="" />
    <EXPORT ORDINAL="1712" NAME="?id@?$num_put@GV?$ostreambuf_iterator@GU?$char_traits@G@std@@@std@@@std@@2V0locale@2@A" PURGE="-1" COMMENT="" />
    <EXPORT ORDINAL="1713" NAME="?id@?$numpunct@D@std@@2V0locale@2@A" PURGE="-1" COMMENT="" />
    <EXPORT ORDINAL="1714" NAME="?id@?$numpunct@G@std@@2V0locale@2@A" PURGE="-1" COMMENT="" />
    <EXPORT ORDINAL="1715" NAME="?id@?$time_get@DV?$istreambuf_iterator@DU?$char_traits@D@std@@@std@@@std@@2V0locale@2@A" PURGE="-1" COMMENT="" />
    <EXPORT ORDINAL="1716" NAME="?id@?$time_get@GV?$istreambuf_iterator@GU?$char_traits@G@std@@@std@@@std@@2V0locale@2@A" PURGE="-1" COMMENT="" />
    <EXPORT ORDINAL="1717" NAME="?id@?$time_put@DV?$ostreambuf_iterator@DU?$char_traits@D@std@@@std@@@std@@2V0locale@2@A" PURGE="-1" COMMENT="" />
    <EXPORT ORDINAL="1718" NAME="?id@?$time_put@GV?$ostreambuf_iterator@GU?$char_traits@G@std@@@std@@@std@@2V0locale@2@A" PURGE="-1" COMMENT="" />
    <EXPORT ORDINAL="1719" NAME="?ignore@?$basic_istream@DU?$char_traits@D@std@@@std@@QAEAAV12@HH@Z" PURGE="8" COMMENT="" />
    <EXPORT ORDINAL="1720" NAME="?ignore@?$basic_istream@GU?$char_traits@G@std@@@std@@QAEAAV12@HG@Z" PURGE="8" COMMENT="" />
    <EXPORT ORDINAL="1721" NAME="?imag@?$_Complex_base@M@std@@QAEMABM@Z" PURGE="4" COMMENT="" />
    <EXPORT ORDINAL="1722" NAME="?imag@?$_Complex_base@M@std@@QBEMXZ" PURGE="0" COMMENT="" />
    <EXPORT ORDINAL="1723" NAME="?imag@?$_Complex_base@N@std@@QAENABN@Z" PURGE="4" COMMENT="" />
    <EXPORT ORDINAL="1724" NAME="?imag@?$_Complex_base@N@std@@QBENXZ" PURGE="0" COMMENT="" />
    <EXPORT ORDINAL="1725" NAME="?imag@?$_Complex_base@O@std@@QAEOABO@Z" PURGE="4" COMMENT="" />
    <EXPORT ORDINAL="1726" NAME="?imag@?$_Complex_base@O@std@@QBEOXZ" PURGE="0" COMMENT="" />
    <EXPORT ORDINAL="1727" NAME="??$imag@M@std@@YAMABV?$complex@M@0@@Z" PURGE="0" COMMENT="" />
    <EXPORT ORDINAL="1728" NAME="??$imag@N@std@@YANABV?$complex@N@0@@Z" PURGE="0" COMMENT="" />
    <EXPORT ORDINAL="1729" NAME="??$imag@O@std@@YAOABV?$complex@O@0@@Z" PURGE="0" COMMENT="" />
    <EXPORT ORDINAL="1730" NAME="?imbue@?$basic_ios@DU?$char_traits@D@std@@@std@@QAE?AVlocale@2@ABV32@@Z" PURGE="8" COMMENT="" />
    <EXPORT ORDINAL="1731" NAME="?imbue@?$basic_ios@GU?$char_traits@G@std@@@std@@QAE?AVlocale@2@ABV32@@Z" PURGE="8" COMMENT="" />
    <EXPORT ORDINAL="1732" NAME="?imbue@?$basic_streambuf@DU?$char_traits@D@std@@@std@@MAEXABVlocale@2@@Z" PURGE="4" COMMENT="" />
    <EXPORT ORDINAL="1733" NAME="?imbue@?$basic_streambuf@GU?$char_traits@G@std@@@std@@MAEXABVlocale@2@@Z" PURGE="4" COMMENT="" />
    <EXPORT ORDINAL="1734" NAME="?imbue@ios_base@std@@QAE?AVlocale@2@ABV32@@Z" PURGE="8" COMMENT="" />
    <EXPORT ORDINAL="1735" NAME="?in@?$codecvt@DDH@std@@QBEHAAHPBD1AAPBDPAD3AAPAD@Z" PURGE="28" COMMENT="" />
    <EXPORT ORDINAL="1736" NAME="?in@?$codecvt@GDH@std@@QBEHAAHPBD1AAPBDPAG3AAPAG@Z" PURGE="28" COMMENT="" />
    <EXPORT ORDINAL="1737" NAME="?in_avail@?$basic_streambuf@DU?$char_traits@D@std@@@std@@QAEHXZ" PURGE="0" COMMENT="" />
    <EXPORT ORDINAL="1738" NAME="?in_avail@?$basic_streambuf@GU?$char_traits@G@std@@@std@@QAEHXZ" PURGE="0" COMMENT="" />
    <EXPORT ORDINAL="1739" NAME="?infinity@?$numeric_limits@C@std@@SACXZ" PURGE="0" COMMENT="" />
    <EXPORT ORDINAL="1740" NAME="?infinity@?$numeric_limits@D@std@@SADXZ" PURGE="0" COMMENT="" />
    <EXPORT ORDINAL="1741" NAME="?infinity@?$numeric_limits@E@std@@SAEXZ" PURGE="0" COMMENT="" />
    <EXPORT ORDINAL="1742" NAME="?infinity@?$numeric_limits@F@std@@SAFXZ" PURGE="0" COMMENT="" />
    <EXPORT ORDINAL="1743" NAME="?infinity@?$numeric_limits@G@std@@SAGXZ" PURGE="0" COMMENT="" />
    <EXPORT ORDINAL="1744" NAME="?infinity@?$numeric_limits@H@std@@SAHXZ" PURGE="0" COMMENT="" />
    <EXPORT ORDINAL="1745" NAME="?infinity@?$numeric_limits@I@std@@SAIXZ" PURGE="0" COMMENT="" />
    <EXPORT ORDINAL="1746" NAME="?infinity@?$numeric_limits@J@std@@SAJXZ" PURGE="0" COMMENT="" />
    <EXPORT ORDINAL="1747" NAME="?infinity@?$numeric_limits@K@std@@SAKXZ" PURGE="0" COMMENT="" />
    <EXPORT ORDINAL="1748" NAME="?infinity@?$numeric_limits@M@std@@SAMXZ" PURGE="0" COMMENT="" />
    <EXPORT ORDINAL="1749" NAME="?infinity@?$numeric_limits@N@std@@SANXZ" PURGE="0" COMMENT="" />
    <EXPORT ORDINAL="1750" NAME="?infinity@?$numeric_limits@O@std@@SAOXZ" PURGE="0" COMMENT="" />
    <EXPORT ORDINAL="1751" NAME="?infinity@?$numeric_limits@_N@std@@SA_NXZ" PURGE="0" COMMENT="" />
    <EXPORT ORDINAL="1752" NAME="?init@?$basic_ios@DU?$char_traits@D@std@@@std@@IAEXPAV?$basic_streambuf@DU?$char_traits@D@std@@@2@_N@Z" PURGE="8" COMMENT="" />
    <EXPORT ORDINAL="1753" NAME="?init@?$basic_ios@GU?$char_traits@G@std@@@std@@IAEXPAV?$basic_streambuf@GU?$char_traits@G@std@@@2@_N@Z" PURGE="8" COMMENT="" />
    <EXPORT ORDINAL="1754" NAME="?insert@?$basic_string@DU?$char_traits@D@std@@V?$allocator@D@2@@std@@QAEAAV12@IABV12@@Z" PURGE="8" COMMENT="" />
    <EXPORT ORDINAL="1755" NAME="?insert@?$basic_string@DU?$char_traits@D@std@@V?$allocator@D@2@@std@@QAEAAV12@IABV12@II@Z" PURGE="16" COMMENT="" />
    <EXPORT ORDINAL="1756" NAME="?insert@?$basic_string@DU?$char_traits@D@std@@V?$allocator@D@2@@std@@QAEAAV12@IID@Z" PURGE="12" COMMENT="" />
    <EXPORT ORDINAL="1757" NAME="?insert@?$basic_string@DU?$char_traits@D@std@@V?$allocator@D@2@@std@@QAEAAV12@IPBD@Z" PURGE="8" COMMENT="" />
    <EXPORT ORDINAL="1758" NAME="?insert@?$basic_string@DU?$char_traits@D@std@@V?$allocator@D@2@@std@@QAEAAV12@IPBDI@Z" PURGE="12" COMMENT="" />
    <EXPORT ORDINAL="1759" NAME="?insert@?$basic_string@DU?$char_traits@D@std@@V?$allocator@D@2@@std@@QAEPADPADD@Z" PURGE="8" COMMENT="" />
    <EXPORT ORDINAL="1760" NAME="?insert@?$basic_string@DU?$char_traits@D@std@@V?$allocator@D@2@@std@@QAEXPADID@Z" PURGE="12" COMMENT="" />
    <EXPORT ORDINAL="1761" NAME="?insert@?$basic_string@DU?$char_traits@D@std@@V?$allocator@D@2@@std@@QAEXPADPBD1@Z" PURGE="12" COMMENT="" />
    <EXPORT ORDINAL="1762" NAME="?insert@?$basic_string@GU?$char_traits@G@std@@V?$allocator@G@2@@std@@QAEAAV12@IABV12@@Z" PURGE="8" COMMENT="" />
    <EXPORT ORDINAL="1763" NAME="?insert@?$basic_string@GU?$char_traits@G@std@@V?$allocator@G@2@@std@@QAEAAV12@IABV12@II@Z" PURGE="16" COMMENT="" />
    <EXPORT ORDINAL="1764" NAME="?insert@?$basic_string@GU?$char_traits@G@std@@V?$allocator@G@2@@std@@QAEAAV12@IIG@Z" PURGE="12" COMMENT="" />
    <EXPORT ORDINAL="1765" NAME="?insert@?$basic_string@GU?$char_traits@G@std@@V?$allocator@G@2@@std@@QAEAAV12@IPBG@Z" PURGE="8" COMMENT="" />
    <EXPORT ORDINAL="1766" NAME="?insert@?$basic_string@GU?$char_traits@G@std@@V?$allocator@G@2@@std@@QAEAAV12@IPBGI@Z" PURGE="12" COMMENT="" />
    <EXPORT ORDINAL="1767" NAME="?insert@?$basic_string@GU?$char_traits@G@std@@V?$allocator@G@2@@std@@QAEPAGPAGG@Z" PURGE="8" COMMENT="" />
    <EXPORT ORDINAL="1768" NAME="?insert@?$basic_string@GU?$char_traits@G@std@@V?$allocator@G@2@@std@@QAEXPAGIG@Z" PURGE="12" COMMENT="" />
    <EXPORT ORDINAL="1769" NAME="?insert@?$basic_string@GU?$char_traits@G@std@@V?$allocator@G@2@@std@@QAEXPAGPBG1@Z" PURGE="12" COMMENT="" />
    <EXPORT ORDINAL="1770" NAME="?intl@?$moneypunct@D$00@std@@2_NB" PURGE="-1" COMMENT="" />
    <EXPORT ORDINAL="1771" NAME="?intl@?$moneypunct@D$0A@@std@@2_NB" PURGE="-1" COMMENT="" />
    <EXPORT ORDINAL="1772" NAME="?intl@?$moneypunct@G$00@std@@2_NB" PURGE="-1" COMMENT="" />
    <EXPORT ORDINAL="1773" NAME="?intl@?$moneypunct@G$0A@@std@@2_NB" PURGE="-1" COMMENT="" />
    <EXPORT ORDINAL="1774" NAME="?ipfx@?$basic_istream@DU?$char_traits@D@std@@@std@@QAE_N_N@Z" PURGE="4" COMMENT="" />
    <EXPORT ORDINAL="1775" NAME="?ipfx@?$basic_istream@GU?$char_traits@G@std@@@std@@QAE_N_N@Z" PURGE="4" COMMENT="" />
    <EXPORT ORDINAL="1776" NAME="?is@?$ctype@D@std@@QBEPBDPBD0PAF@Z" PURGE="12" COMMENT="" />
    <EXPORT ORDINAL="1777" NAME="?is@?$ctype@D@std@@QBE_NFD@Z" PURGE="8" COMMENT="" />
    <EXPORT ORDINAL="1778" NAME="?is@?$ctype@G@std@@QBEPBGPBG0PAF@Z" PURGE="12" COMMENT="" />
    <EXPORT ORDINAL="1779" NAME="?is@?$ctype@G@std@@QBE_NFG@Z" PURGE="8" COMMENT="" />
    <EXPORT ORDINAL="1780" NAME="?is_open@?$basic_filebuf@DU?$char_traits@D@std@@@std@@QBE_NXZ" PURGE="0" COMMENT="" />
    <EXPORT ORDINAL="1781" NAME="?is_open@?$basic_filebuf@GU?$char_traits@G@std@@@std@@QBE_NXZ" PURGE="0" COMMENT="" />
    <EXPORT ORDINAL="1782" NAME="?is_open@?$basic_fstream@DU?$char_traits@D@std@@@std@@QBE_NXZ" PURGE="0" COMMENT="" />
    <EXPORT ORDINAL="1783" NAME="?is_open@?$basic_fstream@GU?$char_traits@G@std@@@std@@QBE_NXZ" PURGE="0" COMMENT="" />
    <EXPORT ORDINAL="1784" NAME="?is_open@?$basic_ifstream@DU?$char_traits@D@std@@@std@@QBE_NXZ" PURGE="0" COMMENT="" />
    <EXPORT ORDINAL="1785" NAME="?is_open@?$basic_ifstream@GU?$char_traits@G@std@@@std@@QBE_NXZ" PURGE="0" COMMENT="" />
    <EXPORT ORDINAL="1786" NAME="?is_open@?$basic_ofstream@DU?$char_traits@D@std@@@std@@QBE_NXZ" PURGE="0" COMMENT="" />
    <EXPORT ORDINAL="1787" NAME="?is_open@?$basic_ofstream@GU?$char_traits@G@std@@@std@@QBE_NXZ" PURGE="0" COMMENT="" />
    <EXPORT ORDINAL="1788" NAME="?isfx@?$basic_istream@DU?$char_traits@D@std@@@std@@QAEXXZ" PURGE="0" COMMENT="" />
    <EXPORT ORDINAL="1789" NAME="?isfx@?$basic_istream@GU?$char_traits@G@std@@@std@@QAEXXZ" PURGE="0" COMMENT="" />
    <EXPORT ORDINAL="1790" NAME="?iword@ios_base@std@@QAEAAJH@Z" PURGE="4" COMMENT="" />
    <EXPORT ORDINAL="1791" NAME="?ldexp@?$_Ctr@M@std@@SAMMH@Z" PURGE="0" COMMENT="" />
    <EXPORT ORDINAL="1792" NAME="?ldexp@?$_Ctr@N@std@@SANNH@Z" PURGE="0" COMMENT="" />
    <EXPORT ORDINAL="1793" NAME="?ldexp@?$_Ctr@O@std@@SAOOH@Z" PURGE="0" COMMENT="" />
    <EXPORT ORDINAL="1794" NAME="?length@?$basic_string@DU?$char_traits@D@std@@V?$allocator@D@2@@std@@QBEIXZ" PURGE="0" COMMENT="" />
    <EXPORT ORDINAL="1795" NAME="?length@?$basic_string@GU?$char_traits@G@std@@V?$allocator@G@2@@std@@QBEIXZ" PURGE="0" COMMENT="" />
    <EXPORT ORDINAL="1796" NAME="?length@?$char_traits@D@std@@SAIPBD@Z" PURGE="0" COMMENT="" />
    <EXPORT ORDINAL="1797" NAME="?length@?$char_traits@G@std@@SAIPBG@Z" PURGE="0" COMMENT="" />
    <EXPORT ORDINAL="1798" NAME="?length@?$codecvt@DDH@std@@QBEHAAHPBD1I@Z" PURGE="16" COMMENT="" />
    <EXPORT ORDINAL="1799" NAME="?length@?$codecvt@GDH@std@@QBEHAAHPBG1I@Z" PURGE="16" COMMENT="" />
    <EXPORT ORDINAL="1800" NAME="??$log10@M@std@@YA?AV?$complex@M@0@ABV10@@Z" PURGE="0" COMMENT="" />
    <EXPORT ORDINAL="1801" NAME="??$log10@N@std@@YA?AV?$complex@N@0@ABV10@@Z" PURGE="0" COMMENT="" />
    <EXPORT ORDINAL="1802" NAME="??$log10@O@std@@YA?AV?$complex@O@0@ABV10@@Z" PURGE="0" COMMENT="" />
    <EXPORT ORDINAL="1803" NAME="?log@?$_Ctr@M@std@@SAMM@Z" PURGE="0" COMMENT="" />
    <EXPORT ORDINAL="1804" NAME="?log@?$_Ctr@N@std@@SANN@Z" PURGE="-1" COMMENT="" />
    <EXPORT ORDINAL="1805" NAME="?log@?$_Ctr@O@std@@SAOO@Z" PURGE="-1" COMMENT="" />
    <EXPORT ORDINAL="1806" NAME="??$log@M@std@@YA?AV?$complex@M@0@ABV10@@Z" PURGE="0" COMMENT="" />
    <EXPORT ORDINAL="1807" NAME="??$log@N@std@@YA?AV?$complex@N@0@ABV10@@Z" PURGE="0" COMMENT="" />
    <EXPORT ORDINAL="1808" NAME="??$log@O@std@@YA?AV?$complex@O@0@ABV10@@Z" PURGE="0" COMMENT="" />
    <EXPORT ORDINAL="1809" NAME="?lt@?$char_traits@D@std@@SA_NABD0@Z" PURGE="0" COMMENT="" />
    <EXPORT ORDINAL="1810" NAME="?lt@?$char_traits@G@std@@SA_NABG0@Z" PURGE="0" COMMENT="" />
    <EXPORT ORDINAL="1811" NAME="?max@?$numeric_limits@C@std@@SACXZ" PURGE="0" COMMENT="" />
    <EXPORT ORDINAL="1812" NAME="?max@?$numeric_limits@D@std@@SADXZ" PURGE="0" COMMENT="" />
    <EXPORT ORDINAL="1813" NAME="?max@?$numeric_limits@E@std@@SAEXZ" PURGE="0" COMMENT="" />
    <EXPORT ORDINAL="1814" NAME="?max@?$numeric_limits@F@std@@SAFXZ" PURGE="0" COMMENT="" />
    <EXPORT ORDINAL="1815" NAME="?max@?$numeric_limits@G@std@@SAGXZ" PURGE="0" COMMENT="" />
    <EXPORT ORDINAL="1816" NAME="?max@?$numeric_limits@H@std@@SAHXZ" PURGE="0" COMMENT="" />
    <EXPORT ORDINAL="1817" NAME="?max@?$numeric_limits@I@std@@SAIXZ" PURGE="0" COMMENT="" />
    <EXPORT ORDINAL="1818" NAME="?max@?$numeric_limits@J@std@@SAJXZ" PURGE="0" COMMENT="" />
    <EXPORT ORDINAL="1819" NAME="?max@?$numeric_limits@K@std@@SAKXZ" PURGE="0" COMMENT="" />
    <EXPORT ORDINAL="1820" NAME="?max@?$numeric_limits@M@std@@SAMXZ" PURGE="0" COMMENT="" />
    <EXPORT ORDINAL="1821" NAME="?max@?$numeric_limits@N@std@@SANXZ" PURGE="0" COMMENT="" />
    <EXPORT ORDINAL="1822" NAME="?max@?$numeric_limits@O@std@@SAOXZ" PURGE="0" COMMENT="" />
    <EXPORT ORDINAL="1823" NAME="?max@?$numeric_limits@_N@std@@SA_NXZ" PURGE="0" COMMENT="" />
    <EXPORT ORDINAL="1824" NAME="?max_length@codecvt_base@std@@QBEHXZ" PURGE="0" COMMENT="" />
    <EXPORT ORDINAL="1825" NAME="?max_size@?$basic_string@DU?$char_traits@D@std@@V?$allocator@D@2@@std@@QBEIXZ" PURGE="0" COMMENT="" />
    <EXPORT ORDINAL="1826" NAME="?max_size@?$basic_string@GU?$char_traits@G@std@@V?$allocator@G@2@@std@@QBEIXZ" PURGE="0" COMMENT="" />
    <EXPORT ORDINAL="1827" NAME="?min@?$numeric_limits@C@std@@SACXZ" PURGE="0" COMMENT="" />
    <EXPORT ORDINAL="1828" NAME="?min@?$numeric_limits@D@std@@SADXZ" PURGE="0" COMMENT="" />
    <EXPORT ORDINAL="1829" NAME="?min@?$numeric_limits@E@std@@SAEXZ" PURGE="0" COMMENT="" />
    <EXPORT ORDINAL="1830" NAME="?min@?$numeric_limits@F@std@@SAFXZ" PURGE="0" COMMENT="" />
    <EXPORT ORDINAL="1831" NAME="?min@?$numeric_limits@G@std@@SAGXZ" PURGE="0" COMMENT="" />
    <EXPORT ORDINAL="1832" NAME="?min@?$numeric_limits@H@std@@SAHXZ" PURGE="0" COMMENT="" />
    <EXPORT ORDINAL="1833" NAME="?min@?$numeric_limits@I@std@@SAIXZ" PURGE="0" COMMENT="" />
    <EXPORT ORDINAL="1834" NAME="?min@?$numeric_limits@J@std@@SAJXZ" PURGE="0" COMMENT="" />
    <EXPORT ORDINAL="1835" NAME="?min@?$numeric_limits@K@std@@SAKXZ" PURGE="0" COMMENT="" />
    <EXPORT ORDINAL="1836" NAME="?min@?$numeric_limits@M@std@@SAMXZ" PURGE="0" COMMENT="" />
    <EXPORT ORDINAL="1837" NAME="?min@?$numeric_limits@N@std@@SANXZ" PURGE="0" COMMENT="" />
    <EXPORT ORDINAL="1838" NAME="?min@?$numeric_limits@O@std@@SAOXZ" PURGE="0" COMMENT="" />
    <EXPORT ORDINAL="1839" NAME="?min@?$numeric_limits@_N@std@@SA_NXZ" PURGE="0" COMMENT="" />
    <EXPORT ORDINAL="1840" NAME="?move@?$char_traits@D@std@@SAPADPADPBDI@Z" PURGE="-1" COMMENT="" />
    <EXPORT ORDINAL="1841" NAME="?move@?$char_traits@G@std@@SAPAGPAGPBGI@Z" PURGE="0" COMMENT="" />
    <EXPORT ORDINAL="1842" NAME="?name@locale@std@@QBE?AV?$basic_string@DU?$char_traits@D@std@@V?$allocator@D@2@@2@XZ" PURGE="4" COMMENT="" />
    <EXPORT ORDINAL="1843" NAME="?narrow@?$basic_ios@DU?$char_traits@D@std@@@std@@QBEDDD@Z" PURGE="8" COMMENT="" />
    <EXPORT ORDINAL="1844" NAME="?narrow@?$basic_ios@GU?$char_traits@G@std@@@std@@QBEDGD@Z" PURGE="8" COMMENT="" />
    <EXPORT ORDINAL="1845" NAME="?narrow@?$ctype@D@std@@QBEDDD@Z" PURGE="8" COMMENT="" />
    <EXPORT ORDINAL="1846" NAME="?narrow@?$ctype@D@std@@QBEPBDPBD0DPAD@Z" PURGE="16" COMMENT="" />
    <EXPORT ORDINAL="1847" NAME="?narrow@?$ctype@G@std@@QBEDGD@Z" PURGE="8" COMMENT="" />
    <EXPORT ORDINAL="1848" NAME="?narrow@?$ctype@G@std@@QBEPBGPBG0DPAD@Z" PURGE="16" COMMENT="" />
    <EXPORT ORDINAL="1849" NAME="?neg_format@?$_Mpunct@D@std@@QBE?AUpattern@money_base@2@XZ" PURGE="4" COMMENT="" />
    <EXPORT ORDINAL="1850" NAME="?neg_format@?$_Mpunct@G@std@@QBE?AUpattern@money_base@2@XZ" PURGE="4" COMMENT="" />
    <EXPORT ORDINAL="1851" NAME="?negative_sign@?$_Mpunct@D@std@@QBE?AV?$basic_string@DU?$char_traits@D@std@@V?$allocator@D@2@@2@XZ" PURGE="4" COMMENT="" />
    <EXPORT ORDINAL="1852" NAME="?negative_sign@?$_Mpunct@G@std@@QBE?AV?$basic_string@GU?$char_traits@G@std@@V?$allocator@G@2@@2@XZ" PURGE="4" COMMENT="" />
    <EXPORT ORDINAL="1853" NAME="??$norm@M@std@@YAMABV?$complex@M@0@@Z" PURGE="0" COMMENT="" />
    <EXPORT ORDINAL="1854" NAME="??$norm@N@std@@YANABV?$complex@N@0@@Z" PURGE="0" COMMENT="" />
    <EXPORT ORDINAL="1855" NAME="??$norm@O@std@@YAOABV?$complex@O@0@@Z" PURGE="0" COMMENT="" />
    <EXPORT ORDINAL="1856" NAME="?not_eof@?$char_traits@D@std@@SAHABH@Z" PURGE="0" COMMENT="" />
    <EXPORT ORDINAL="1857" NAME="?not_eof@?$char_traits@G@std@@SAGABG@Z" PURGE="0" COMMENT="" />
    <EXPORT ORDINAL="1858" NAME="?nothrow@std@@3Unothrow_t@1@B" PURGE="-1" COMMENT="" />
    <EXPORT ORDINAL="1859" NAME="?npos@?$basic_string@DU?$char_traits@D@std@@V?$allocator@D@2@@std@@2IB" PURGE="-1" COMMENT="" />
    <EXPORT ORDINAL="1860" NAME="?npos@?$basic_string@GU?$char_traits@G@std@@V?$allocator@G@2@@std@@2IB" PURGE="-1" COMMENT="" />
    <EXPORT ORDINAL="1861" NAME="?open@?$basic_filebuf@DU?$char_traits@D@std@@@std@@QAEPAV12@PBDF@Z" PURGE="8" COMMENT="" />
    <EXPORT ORDINAL="1862" NAME="?open@?$basic_filebuf@DU?$char_traits@D@std@@@std@@QAEPAV12@PBDH@Z" PURGE="8" COMMENT="" />
    <EXPORT ORDINAL="1863" NAME="?open@?$basic_filebuf@GU?$char_traits@G@std@@@std@@QAEPAV12@PBDF@Z" PURGE="8" COMMENT="" />
    <EXPORT ORDINAL="1864" NAME="?open@?$basic_filebuf@GU?$char_traits@G@std@@@std@@QAEPAV12@PBDH@Z" PURGE="8" COMMENT="" />
    <EXPORT ORDINAL="1865" NAME="?open@?$basic_fstream@DU?$char_traits@D@std@@@std@@QAEXPBDF@Z" PURGE="8" COMMENT="" />
    <EXPORT ORDINAL="1866" NAME="?open@?$basic_fstream@DU?$char_traits@D@std@@@std@@QAEXPBDH@Z" PURGE="8" COMMENT="" />
    <EXPORT ORDINAL="1867" NAME="?open@?$basic_fstream@GU?$char_traits@G@std@@@std@@QAEXPBDF@Z" PURGE="8" COMMENT="" />
    <EXPORT ORDINAL="1868" NAME="?open@?$basic_fstream@GU?$char_traits@G@std@@@std@@QAEXPBDH@Z" PURGE="8" COMMENT="" />
    <EXPORT ORDINAL="1869" NAME="?open@?$basic_ifstream@DU?$char_traits@D@std@@@std@@QAEXPBDF@Z" PURGE="8" COMMENT="" />
    <EXPORT ORDINAL="1870" NAME="?open@?$basic_ifstream@DU?$char_traits@D@std@@@std@@QAEXPBDH@Z" PURGE="8" COMMENT="" />
    <EXPORT ORDINAL="1871" NAME="?open@?$basic_ifstream@GU?$char_traits@G@std@@@std@@QAEXPBDF@Z" PURGE="8" COMMENT="" />
    <EXPORT ORDINAL="1872" NAME="?open@?$basic_ifstream@GU?$char_traits@G@std@@@std@@QAEXPBDH@Z" PURGE="8" COMMENT="" />
    <EXPORT ORDINAL="1873" NAME="?open@?$basic_ofstream@DU?$char_traits@D@std@@@std@@QAEXPBDF@Z" PURGE="8" COMMENT="" />
    <EXPORT ORDINAL="1874" NAME="?open@?$basic_ofstream@DU?$char_traits@D@std@@@std@@QAEXPBDH@Z" PURGE="8" COMMENT="" />
    <EXPORT ORDINAL="1875" NAME="?open@?$basic_ofstream@GU?$char_traits@G@std@@@std@@QAEXPBDF@Z" PURGE="8" COMMENT="" />
    <EXPORT ORDINAL="1876" NAME="?open@?$basic_ofstream@GU?$char_traits@G@std@@@std@@QAEXPBDH@Z" PURGE="8" COMMENT="" />
    <EXPORT ORDINAL="1877" NAME="?open@?$messages@D@std@@QBEHABV?$basic_string@DU?$char_traits@D@std@@V?$allocator@D@2@@2@ABVlocale@2@@Z" PURGE="8" COMMENT="" />
    <EXPORT ORDINAL="1878" NAME="?open@?$messages@G@std@@QBEHABV?$basic_string@DU?$char_traits@D@std@@V?$allocator@D@2@@2@ABVlocale@2@@Z" PURGE="8" COMMENT="" />
    <EXPORT ORDINAL="1879" NAME="?opfx@?$basic_ostream@DU?$char_traits@D@std@@@std@@QAE_NXZ" PURGE="0" COMMENT="" />
    <EXPORT ORDINAL="1880" NAME="?opfx@?$basic_ostream@GU?$char_traits@G@std@@@std@@QAE_NXZ" PURGE="0" COMMENT="" />
    <EXPORT ORDINAL="1881" NAME="?osfx@?$basic_ostream@DU?$char_traits@D@std@@@std@@QAEXXZ" PURGE="0" COMMENT="" />
    <EXPORT ORDINAL="1882" NAME="?osfx@?$basic_ostream@GU?$char_traits@G@std@@@std@@QAEXXZ" PURGE="0" COMMENT="" />
    <EXPORT ORDINAL="1883" NAME="?out@?$codecvt@DDH@std@@QBEHAAHPBD1AAPBDPAD3AAPAD@Z" PURGE="28" COMMENT="" />
    <EXPORT ORDINAL="1884" NAME="?out@?$codecvt@GDH@std@@QBEHAAHPBG1AAPBGPAD3AAPAD@Z" PURGE="28" COMMENT="" />
    <EXPORT ORDINAL="1885" NAME="?overflow@?$basic_filebuf@DU?$char_traits@D@std@@@std@@MAEHH@Z" PURGE="4" COMMENT="" />
    <EXPORT ORDINAL="1886" NAME="?overflow@?$basic_filebuf@GU?$char_traits@G@std@@@std@@MAEGG@Z" PURGE="4" COMMENT="" />
    <EXPORT ORDINAL="1887" NAME="?overflow@?$basic_streambuf@DU?$char_traits@D@std@@@std@@MAEHH@Z" PURGE="4" COMMENT="" />
    <EXPORT ORDINAL="1888" NAME="?overflow@?$basic_streambuf@GU?$char_traits@G@std@@@std@@MAEGG@Z" PURGE="4" COMMENT="" />
    <EXPORT ORDINAL="1889" NAME="?overflow@?$basic_stringbuf@DU?$char_traits@D@std@@V?$allocator@D@2@@std@@MAEHH@Z" PURGE="4" COMMENT="" />
    <EXPORT ORDINAL="1890" NAME="?overflow@?$basic_stringbuf@GU?$char_traits@G@std@@V?$allocator@G@2@@std@@MAEGG@Z" PURGE="4" COMMENT="" />
    <EXPORT ORDINAL="1891" NAME="?overflow@strstreambuf@std@@MAEHH@Z" PURGE="4" COMMENT="" />
    <EXPORT ORDINAL="1892" NAME="?pbackfail@?$basic_filebuf@DU?$char_traits@D@std@@@std@@MAEHH@Z" PURGE="4" COMMENT="" />
    <EXPORT ORDINAL="1893" NAME="?pbackfail@?$basic_filebuf@GU?$char_traits@G@std@@@std@@MAEGG@Z" PURGE="4" COMMENT="" />
    <EXPORT ORDINAL="1894" NAME="?pbackfail@?$basic_streambuf@DU?$char_traits@D@std@@@std@@MAEHH@Z" PURGE="4" COMMENT="" />
    <EXPORT ORDINAL="1895" NAME="?pbackfail@?$basic_streambuf@GU?$char_traits@G@std@@@std@@MAEGG@Z" PURGE="4" COMMENT="" />
    <EXPORT ORDINAL="1896" NAME="?pbackfail@?$basic_stringbuf@DU?$char_traits@D@std@@V?$allocator@D@2@@std@@MAEHH@Z" PURGE="4" COMMENT="" />
    <EXPORT ORDINAL="1897" NAME="?pbackfail@?$basic_stringbuf@GU?$char_traits@G@std@@V?$allocator@G@2@@std@@MAEGG@Z" PURGE="4" COMMENT="" />
    <EXPORT ORDINAL="1898" NAME="?pbackfail@strstreambuf@std@@MAEHH@Z" PURGE="4" COMMENT="" />
    <EXPORT ORDINAL="1899" NAME="?pbase@?$basic_streambuf@DU?$char_traits@D@std@@@std@@IBEPADXZ" PURGE="0" COMMENT="" />
    <EXPORT ORDINAL="1900" NAME="?pbase@?$basic_streambuf@GU?$char_traits@G@std@@@std@@IBEPAGXZ" PURGE="0" COMMENT="" />
    <EXPORT ORDINAL="1901" NAME="?pbump@?$basic_streambuf@DU?$char_traits@D@std@@@std@@IAEXH@Z" PURGE="4" COMMENT="" />
    <EXPORT ORDINAL="1902" NAME="?pbump@?$basic_streambuf@GU?$char_traits@G@std@@@std@@IAEXH@Z" PURGE="4" COMMENT="" />
    <EXPORT ORDINAL="1903" NAME="?peek@?$basic_istream@DU?$char_traits@D@std@@@std@@QAEHXZ" PURGE="0" COMMENT="" />
    <EXPORT ORDINAL="1904" NAME="?peek@?$basic_istream@GU?$char_traits@G@std@@@std@@QAEGXZ" PURGE="0" COMMENT="" />
    <EXPORT ORDINAL="1905" NAME="??$polar@M@std@@YA?AV?$complex@M@0@ABM0@Z" PURGE="0" COMMENT="" />
    <EXPORT ORDINAL="1906" NAME="??$polar@M@std@@YA?AV?$complex@M@0@ABM@Z" PURGE="0" COMMENT="" />
    <EXPORT ORDINAL="1907" NAME="??$polar@N@std@@YA?AV?$complex@N@0@ABN0@Z" PURGE="0" COMMENT="" />
    <EXPORT ORDINAL="1908" NAME="??$polar@N@std@@YA?AV?$complex@N@0@ABN@Z" PURGE="0" COMMENT="" />
    <EXPORT ORDINAL="1909" NAME="??$polar@O@std@@YA?AV?$complex@O@0@ABO0@Z" PURGE="0" COMMENT="" />
    <EXPORT ORDINAL="1910" NAME="??$polar@O@std@@YA?AV?$complex@O@0@ABO@Z" PURGE="0" COMMENT="" />
    <EXPORT ORDINAL="1911" NAME="?pos_format@?$_Mpunct@D@std@@QBE?AUpattern@money_base@2@XZ" PURGE="4" COMMENT="" />
    <EXPORT ORDINAL="1912" NAME="?pos_format@?$_Mpunct@G@std@@QBE?AUpattern@money_base@2@XZ" PURGE="4" COMMENT="" />
    <EXPORT ORDINAL="1913" NAME="?positive_sign@?$_Mpunct@D@std@@QBE?AV?$basic_string@DU?$char_traits@D@std@@V?$allocator@D@2@@2@XZ" PURGE="4" COMMENT="" />
    <EXPORT ORDINAL="1914" NAME="?positive_sign@?$_Mpunct@G@std@@QBE?AV?$basic_string@GU?$char_traits@G@std@@V?$allocator@G@2@@2@XZ" PURGE="4" COMMENT="" />
    <EXPORT ORDINAL="1915" NAME="?pow@?$_Ctr@M@std@@SAMMM@Z" PURGE="0" COMMENT="" />
    <EXPORT ORDINAL="1916" NAME="?pow@?$_Ctr@N@std@@SANNN@Z" PURGE="-1" COMMENT="" />
    <EXPORT ORDINAL="1917" NAME="?pow@?$_Ctr@O@std@@SAOOO@Z" PURGE="-1" COMMENT="" />
    <EXPORT ORDINAL="1918" NAME="??$pow@M@std@@YA?AV?$complex@M@0@ABMABV10@@Z" PURGE="0" COMMENT="" />
    <EXPORT ORDINAL="1919" NAME="??$pow@M@std@@YA?AV?$complex@M@0@ABV10@0@Z" PURGE="0" COMMENT="" />
    <EXPORT ORDINAL="1920" NAME="??$pow@M@std@@YA?AV?$complex@M@0@ABV10@ABM@Z" PURGE="0" COMMENT="" />
    <EXPORT ORDINAL="1921" NAME="??$pow@M@std@@YA?AV?$complex@M@0@ABV10@H@Z" PURGE="0" COMMENT="" />
    <EXPORT ORDINAL="1922" NAME="??$pow@N@std@@YA?AV?$complex@N@0@ABNABV10@@Z" PURGE="0" COMMENT="" />
    <EXPORT ORDINAL="1923" NAME="??$pow@N@std@@YA?AV?$complex@N@0@ABV10@0@Z" PURGE="0" COMMENT="" />
    <EXPORT ORDINAL="1924" NAME="??$pow@N@std@@YA?AV?$complex@N@0@ABV10@ABN@Z" PURGE="0" COMMENT="" />
    <EXPORT ORDINAL="1925" NAME="??$pow@N@std@@YA?AV?$complex@N@0@ABV10@H@Z" PURGE="0" COMMENT="" />
    <EXPORT ORDINAL="1926" NAME="??$pow@O@std@@YA?AV?$complex@O@0@ABOABV10@@Z" PURGE="0" COMMENT="" />
    <EXPORT ORDINAL="1927" NAME="??$pow@O@std@@YA?AV?$complex@O@0@ABV10@0@Z" PURGE="0" COMMENT="" />
    <EXPORT ORDINAL="1928" NAME="??$pow@O@std@@YA?AV?$complex@O@0@ABV10@ABO@Z" PURGE="0" COMMENT="" />
    <EXPORT ORDINAL="1929" NAME="??$pow@O@std@@YA?AV?$complex@O@0@ABV10@H@Z" PURGE="0" COMMENT="" />
    <EXPORT ORDINAL="1930" NAME="?pptr@?$basic_streambuf@DU?$char_traits@D@std@@@std@@IBEPADXZ" PURGE="0" COMMENT="" />
    <EXPORT ORDINAL="1931" NAME="?pptr@?$basic_streambuf@GU?$char_traits@G@std@@@std@@IBEPAGXZ" PURGE="0" COMMENT="" />
    <EXPORT ORDINAL="1932" NAME="?precision@ios_base@std@@QAEHH@Z" PURGE="4" COMMENT="" />
    <EXPORT ORDINAL="1933" NAME="?precision@ios_base@std@@QBEHXZ" PURGE="0" COMMENT="" />
    <EXPORT ORDINAL="1934" NAME="?pubimbue@?$basic_streambuf@DU?$char_traits@D@std@@@std@@QAE?AVlocale@2@ABV32@@Z" PURGE="8" COMMENT="" />
    <EXPORT ORDINAL="1935" NAME="?pubimbue@?$basic_streambuf@GU?$char_traits@G@std@@@std@@QAE?AVlocale@2@ABV32@@Z" PURGE="8" COMMENT="" />
    <EXPORT ORDINAL="1936" NAME="?pubseekoff@?$basic_streambuf@DU?$char_traits@D@std@@@std@@QAE?AV?$fpos@H@2@JFF@Z" PURGE="16" COMMENT="" />
    <EXPORT ORDINAL="1937" NAME="?pubseekoff@?$basic_streambuf@DU?$char_traits@D@std@@@std@@QAE?AV?$fpos@H@2@JW4seekdir@ios_base@2@H@Z" PURGE="16" COMMENT="" />
    <EXPORT ORDINAL="1938" NAME="?pubseekoff@?$basic_streambuf@GU?$char_traits@G@std@@@std@@QAE?AV?$fpos@H@2@JFF@Z" PURGE="16" COMMENT="" />
    <EXPORT ORDINAL="1939" NAME="?pubseekoff@?$basic_streambuf@GU?$char_traits@G@std@@@std@@QAE?AV?$fpos@H@2@JW4seekdir@ios_base@2@H@Z" PURGE="16" COMMENT="" />
    <EXPORT ORDINAL="1940" NAME="?pubseekpos@?$basic_streambuf@DU?$char_traits@D@std@@@std@@QAE?AV?$fpos@H@2@V32@F@Z" PURGE="32" COMMENT="" />
    <EXPORT ORDINAL="1941" NAME="?pubseekpos@?$basic_streambuf@DU?$char_traits@D@std@@@std@@QAE?AV?$fpos@H@2@V32@H@Z" PURGE="32" COMMENT="" />
    <EXPORT ORDINAL="1942" NAME="?pubseekpos@?$basic_streambuf@GU?$char_traits@G@std@@@std@@QAE?AV?$fpos@H@2@V32@F@Z" PURGE="32" COMMENT="" />
    <EXPORT ORDINAL="1943" NAME="?pubseekpos@?$basic_streambuf@GU?$char_traits@G@std@@@std@@QAE?AV?$fpos@H@2@V32@H@Z" PURGE="32" COMMENT="" />
    <EXPORT ORDINAL="1944" NAME="?pubsetbuf@?$basic_streambuf@DU?$char_traits@D@std@@@std@@QAEPAV12@PADH@Z" PURGE="8" COMMENT="" />
    <EXPORT ORDINAL="1945" NAME="?pubsetbuf@?$basic_streambuf@GU?$char_traits@G@std@@@std@@QAEPAV12@PAGH@Z" PURGE="8" COMMENT="" />
    <EXPORT ORDINAL="1946" NAME="?pubsync@?$basic_streambuf@DU?$char_traits@D@std@@@std@@QAEHXZ" PURGE="0" COMMENT="" />
    <EXPORT ORDINAL="1947" NAME="?pubsync@?$basic_streambuf@GU?$char_traits@G@std@@@std@@QAEHXZ" PURGE="0" COMMENT="" />
    <EXPORT ORDINAL="1948" NAME="?put@?$basic_ostream@DU?$char_traits@D@std@@@std@@QAEAAV12@D@Z" PURGE="4" COMMENT="" />
    <EXPORT ORDINAL="1949" NAME="?put@?$basic_ostream@GU?$char_traits@G@std@@@std@@QAEAAV12@G@Z" PURGE="4" COMMENT="" />
    <EXPORT ORDINAL="1950" NAME="?put@?$money_put@DV?$ostreambuf_iterator@DU?$char_traits@D@std@@@std@@@std@@QBE?AV?$ostreambuf_iterator@DU?$char_traits@D@std@@@2@V32@_NAAVios_base@2@DABV?$basic_string@DU?$char_traits@D@std@@V?$allocator@D@2@@2@@Z" PURGE="28" COMMENT="" />
    <EXPORT ORDINAL="1951" NAME="?put@?$money_put@DV?$ostreambuf_iterator@DU?$char_traits@D@std@@@std@@@std@@QBE?AV?$ostreambuf_iterator@DU?$char_traits@D@std@@@2@V32@_NAAVios_base@2@DO@Z" PURGE="32" COMMENT="" />
    <EXPORT ORDINAL="1952" NAME="?put@?$money_put@GV?$ostreambuf_iterator@GU?$char_traits@G@std@@@std@@@std@@QBE?AV?$ostreambuf_iterator@GU?$char_traits@G@std@@@2@V32@_NAAVios_base@2@GABV?$basic_string@GU?$char_traits@G@std@@V?$allocator@G@2@@2@@Z" PURGE="28" COMMENT="" />
    <EXPORT ORDINAL="1953" NAME="?put@?$money_put@GV?$ostreambuf_iterator@GU?$char_traits@G@std@@@std@@@std@@QBE?AV?$ostreambuf_iterator@GU?$char_traits@G@std@@@2@V32@_NAAVios_base@2@GO@Z" PURGE="32" COMMENT="" />
    <EXPORT ORDINAL="1954" NAME="?put@?$num_put@DV?$ostreambuf_iterator@DU?$char_traits@D@std@@@std@@@std@@QBE?AV?$ostreambuf_iterator@DU?$char_traits@D@std@@@2@V32@AAVios_base@2@DJ@Z" PURGE="24" COMMENT="" />
    <EXPORT ORDINAL="1955" NAME="?put@?$num_put@DV?$ostreambuf_iterator@DU?$char_traits@D@std@@@std@@@std@@QBE?AV?$ostreambuf_iterator@DU?$char_traits@D@std@@@2@V32@AAVios_base@2@DK@Z" PURGE="24" COMMENT="" />
    <EXPORT ORDINAL="1956" NAME="?put@?$num_put@DV?$ostreambuf_iterator@DU?$char_traits@D@std@@@std@@@std@@QBE?AV?$ostreambuf_iterator@DU?$char_traits@D@std@@@2@V32@AAVios_base@2@DN@Z" PURGE="28" COMMENT="" />
    <EXPORT ORDINAL="1957" NAME="?put@?$num_put@DV?$ostreambuf_iterator@DU?$char_traits@D@std@@@std@@@std@@QBE?AV?$ostreambuf_iterator@DU?$char_traits@D@std@@@2@V32@AAVios_base@2@DO@Z" PURGE="28" COMMENT="" />
    <EXPORT ORDINAL="1958" NAME="?put@?$num_put@DV?$ostreambuf_iterator@DU?$char_traits@D@std@@@std@@@std@@QBE?AV?$ostreambuf_iterator@DU?$char_traits@D@std@@@2@V32@AAVios_base@2@DPBX@Z" PURGE="24" COMMENT="" />
    <EXPORT ORDINAL="1959" NAME="?put@?$num_put@DV?$ostreambuf_iterator@DU?$char_traits@D@std@@@std@@@std@@QBE?AV?$ostreambuf_iterator@DU?$char_traits@D@std@@@2@V32@AAVios_base@2@D_N@Z" PURGE="24" COMMENT="" />
    <EXPORT ORDINAL="1960" NAME="?put@?$num_put@GV?$ostreambuf_iterator@GU?$char_traits@G@std@@@std@@@std@@QBE?AV?$ostreambuf_iterator@GU?$char_traits@G@std@@@2@V32@AAVios_base@2@GJ@Z" PURGE="24" COMMENT="" />
    <EXPORT ORDINAL="1961" NAME="?put@?$num_put@GV?$ostreambuf_iterator@GU?$char_traits@G@std@@@std@@@std@@QBE?AV?$ostreambuf_iterator@GU?$char_traits@G@std@@@2@V32@AAVios_base@2@GK@Z" PURGE="24" COMMENT="" />
    <EXPORT ORDINAL="1962" NAME="?put@?$num_put@GV?$ostreambuf_iterator@GU?$char_traits@G@std@@@std@@@std@@QBE?AV?$ostreambuf_iterator@GU?$char_traits@G@std@@@2@V32@AAVios_base@2@GN@Z" PURGE="28" COMMENT="" />
    <EXPORT ORDINAL="1963" NAME="?put@?$num_put@GV?$ostreambuf_iterator@GU?$char_traits@G@std@@@std@@@std@@QBE?AV?$ostreambuf_iterator@GU?$char_traits@G@std@@@2@V32@AAVios_base@2@GO@Z" PURGE="28" COMMENT="" />
    <EXPORT ORDINAL="1964" NAME="?put@?$num_put@GV?$ostreambuf_iterator@GU?$char_traits@G@std@@@std@@@std@@QBE?AV?$ostreambuf_iterator@GU?$char_traits@G@std@@@2@V32@AAVios_base@2@GPBX@Z" PURGE="24" COMMENT="" />
    <EXPORT ORDINAL="1965" NAME="?put@?$num_put@GV?$ostreambuf_iterator@GU?$char_traits@G@std@@@std@@@std@@QBE?AV?$ostreambuf_iterator@GU?$char_traits@G@std@@@2@V32@AAVios_base@2@G_N@Z" PURGE="24" COMMENT="" />
    <EXPORT ORDINAL="1966" NAME="?put@?$time_put@DV?$ostreambuf_iterator@DU?$char_traits@D@std@@@std@@@std@@QBE?AV?$ostreambuf_iterator@DU?$char_traits@D@std@@@2@V32@AAVios_base@2@PBUtm@@DD@Z" PURGE="28" COMMENT="" />
    <EXPORT ORDINAL="1967" NAME="?put@?$time_put@DV?$ostreambuf_iterator@DU?$char_traits@D@std@@@std@@@std@@QBE?AV?$ostreambuf_iterator@DU?$char_traits@D@std@@@2@V32@AAVios_base@2@PBUtm@@PBD3@Z" PURGE="28" COMMENT="" />
    <EXPORT ORDINAL="1968" NAME="?put@?$time_put@GV?$ostreambuf_iterator@GU?$char_traits@G@std@@@std@@@std@@QBE?AV?$ostreambuf_iterator@GU?$char_traits@G@std@@@2@V32@AAVios_base@2@PBUtm@@DD@Z" PURGE="28" COMMENT="" />
    <EXPORT ORDINAL="1969" NAME="?put@?$time_put@GV?$ostreambuf_iterator@GU?$char_traits@G@std@@@std@@@std@@QBE?AV?$ostreambuf_iterator@GU?$char_traits@G@std@@@2@V32@AAVios_base@2@PBUtm@@PBG3@Z" PURGE="28" COMMENT="" />
    <EXPORT ORDINAL="1970" NAME="?putback@?$basic_istream@DU?$char_traits@D@std@@@std@@QAEAAV12@D@Z" PURGE="4" COMMENT="" />
    <EXPORT ORDINAL="1971" NAME="?putback@?$basic_istream@GU?$char_traits@G@std@@@std@@QAEAAV12@G@Z" PURGE="4" COMMENT="" />
    <EXPORT ORDINAL="1972" NAME="?pword@ios_base@std@@QAEAAPAXH@Z" PURGE="4" COMMENT="" />
    <EXPORT ORDINAL="1973" NAME="?quiet_NaN@?$numeric_limits@C@std@@SACXZ" PURGE="0" COMMENT="" />
    <EXPORT ORDINAL="1974" NAME="?quiet_NaN@?$numeric_limits@D@std@@SADXZ" PURGE="0" COMMENT="" />
    <EXPORT ORDINAL="1975" NAME="?quiet_NaN@?$numeric_limits@E@std@@SAEXZ" PURGE="0" COMMENT="" />
    <EXPORT ORDINAL="1976" NAME="?quiet_NaN@?$numeric_limits@F@std@@SAFXZ" PURGE="0" COMMENT="" />
    <EXPORT ORDINAL="1977" NAME="?quiet_NaN@?$numeric_limits@G@std@@SAGXZ" PURGE="0" COMMENT="" />
    <EXPORT ORDINAL="1978" NAME="?quiet_NaN@?$numeric_limits@H@std@@SAHXZ" PURGE="0" COMMENT="" />
    <EXPORT ORDINAL="1979" NAME="?quiet_NaN@?$numeric_limits@I@std@@SAIXZ" PURGE="0" COMMENT="" />
    <EXPORT ORDINAL="1980" NAME="?quiet_NaN@?$numeric_limits@J@std@@SAJXZ" PURGE="0" COMMENT="" />
    <EXPORT ORDINAL="1981" NAME="?quiet_NaN@?$numeric_limits@K@std@@SAKXZ" PURGE="0" COMMENT="" />
    <EXPORT ORDINAL="1982" NAME="?quiet_NaN@?$numeric_limits@M@std@@SAMXZ" PURGE="0" COMMENT="" />
    <EXPORT ORDINAL="1983" NAME="?quiet_NaN@?$numeric_limits@N@std@@SANXZ" PURGE="0" COMMENT="" />
    <EXPORT ORDINAL="1984" NAME="?quiet_NaN@?$numeric_limits@O@std@@SAOXZ" PURGE="0" COMMENT="" />
    <EXPORT ORDINAL="1985" NAME="?quiet_NaN@?$numeric_limits@_N@std@@SA_NXZ" PURGE="0" COMMENT="" />
    <EXPORT ORDINAL="1986" NAME="?rbegin@?$basic_string@DU?$char_traits@D@std@@V?$allocator@D@2@@std@@QAE?AV?$reverse_iterator@PADDAADPADH@2@XZ" PURGE="4" COMMENT="" />
    <EXPORT ORDINAL="1987" NAME="?rbegin@?$basic_string@DU?$char_traits@D@std@@V?$allocator@D@2@@std@@QBE?AV?$reverse_iterator@PBDDABDPBDH@2@XZ" PURGE="4" COMMENT="" />
    <EXPORT ORDINAL="1988" NAME="?rbegin@?$basic_string@GU?$char_traits@G@std@@V?$allocator@G@2@@std@@QAE?AV?$reverse_iterator@PAGGAAGPAGH@2@XZ" PURGE="4" COMMENT="" />
    <EXPORT ORDINAL="1989" NAME="?rbegin@?$basic_string@GU?$char_traits@G@std@@V?$allocator@G@2@@std@@QBE?AV?$reverse_iterator@PBGGABGPBGH@2@XZ" PURGE="4" COMMENT="" />
    <EXPORT ORDINAL="1990" NAME="?rdbuf@?$basic_fstream@DU?$char_traits@D@std@@@std@@QBEPAV?$basic_filebuf@DU?$char_traits@D@std@@@2@XZ" PURGE="0" COMMENT="" />
    <EXPORT ORDINAL="1991" NAME="?rdbuf@?$basic_fstream@GU?$char_traits@G@std@@@std@@QBEPAV?$basic_filebuf@GU?$char_traits@G@std@@@2@XZ" PURGE="0" COMMENT="" />
    <EXPORT ORDINAL="1992" NAME="?rdbuf@?$basic_ifstream@DU?$char_traits@D@std@@@std@@QBEPAV?$basic_filebuf@DU?$char_traits@D@std@@@2@XZ" PURGE="0" COMMENT="" />
    <EXPORT ORDINAL="1993" NAME="?rdbuf@?$basic_ifstream@GU?$char_traits@G@std@@@std@@QBEPAV?$basic_filebuf@GU?$char_traits@G@std@@@2@XZ" PURGE="0" COMMENT="" />
    <EXPORT ORDINAL="1994" NAME="?rdbuf@?$basic_ios@DU?$char_traits@D@std@@@std@@QAEPAV?$basic_streambuf@DU?$char_traits@D@std@@@2@PAV32@@Z" PURGE="4" COMMENT="" />
    <EXPORT ORDINAL="1995" NAME="?rdbuf@?$basic_ios@DU?$char_traits@D@std@@@std@@QBEPAV?$basic_streambuf@DU?$char_traits@D@std@@@2@XZ" PURGE="0" COMMENT="" />
    <EXPORT ORDINAL="1996" NAME="?rdbuf@?$basic_ios@GU?$char_traits@G@std@@@std@@QAEPAV?$basic_streambuf@GU?$char_traits@G@std@@@2@PAV32@@Z" PURGE="4" COMMENT="" />
    <EXPORT ORDINAL="1997" NAME="?rdbuf@?$basic_ios@GU?$char_traits@G@std@@@std@@QBEPAV?$basic_streambuf@GU?$char_traits@G@std@@@2@XZ" PURGE="0" COMMENT="" />
    <EXPORT ORDINAL="1998" NAME="?rdbuf@?$basic_istringstream@DU?$char_traits@D@std@@V?$allocator@D@2@@std@@QBEPAV?$basic_stringbuf@DU?$char_traits@D@std@@V?$allocator@D@2@@2@XZ" PURGE="0" COMMENT="" />
    <EXPORT ORDINAL="1999" NAME="?rdbuf@?$basic_istringstream@GU?$char_traits@G@std@@V?$allocator@G@2@@std@@QBEPAV?$basic_stringbuf@GU?$char_traits@G@std@@V?$allocator@G@2@@2@XZ" PURGE="0" COMMENT="" />
    <EXPORT ORDINAL="2000" NAME="?rdbuf@?$basic_ofstream@DU?$char_traits@D@std@@@std@@QBEPAV?$basic_filebuf@DU?$char_traits@D@std@@@2@XZ" PURGE="0" COMMENT="" />
    <EXPORT ORDINAL="2001" NAME="?rdbuf@?$basic_ofstream@GU?$char_traits@G@std@@@std@@QBEPAV?$basic_filebuf@GU?$char_traits@G@std@@@2@XZ" PURGE="0" COMMENT="" />
    <EXPORT ORDINAL="2002" NAME="?rdbuf@?$basic_ostringstream@DU?$char_traits@D@std@@V?$allocator@D@2@@std@@QBEPAV?$basic_stringbuf@DU?$char_traits@D@std@@V?$allocator@D@2@@2@XZ" PURGE="0" COMMENT="" />
    <EXPORT ORDINAL="2003" NAME="?rdbuf@?$basic_ostringstream@GU?$char_traits@G@std@@V?$allocator@G@2@@std@@QBEPAV?$basic_stringbuf@GU?$char_traits@G@std@@V?$allocator@G@2@@2@XZ" PURGE="0" COMMENT="" />
    <EXPORT ORDINAL="2004" NAME="?rdbuf@?$basic_stringstream@DU?$char_traits@D@std@@V?$allocator@D@2@@std@@QBEPAV?$basic_stringbuf@DU?$char_traits@D@std@@V?$allocator@D@2@@2@XZ" PURGE="0" COMMENT="" />
    <EXPORT ORDINAL="2005" NAME="?rdbuf@?$basic_stringstream@GU?$char_traits@G@std@@V?$allocator@G@2@@std@@QBEPAV?$basic_stringbuf@GU?$char_traits@G@std@@V?$allocator@G@2@@2@XZ" PURGE="0" COMMENT="" />
    <EXPORT ORDINAL="2006" NAME="?rdstate@ios_base@std@@QBEHXZ" PURGE="0" COMMENT="" />
    <EXPORT ORDINAL="2007" NAME="?read@?$basic_istream@DU?$char_traits@D@std@@@std@@QAEAAV12@PADH@Z" PURGE="8" COMMENT="" />
    <EXPORT ORDINAL="2008" NAME="?read@?$basic_istream@GU?$char_traits@G@std@@@std@@QAEAAV12@PAGH@Z" PURGE="8" COMMENT="" />
    <EXPORT ORDINAL="2009" NAME="?readsome@?$basic_istream@DU?$char_traits@D@std@@@std@@QAEHPADH@Z" PURGE="8" COMMENT="" />
    <EXPORT ORDINAL="2010" NAME="?readsome@?$basic_istream@GU?$char_traits@G@std@@@std@@QAEHPAGH@Z" PURGE="8" COMMENT="" />
    <EXPORT ORDINAL="2011" NAME="?real@?$_Complex_base@M@std@@QAEMABM@Z" PURGE="4" COMMENT="" />
    <EXPORT ORDINAL="2012" NAME="?real@?$_Complex_base@M@std@@QBEMXZ" PURGE="0" COMMENT="" />
    <EXPORT ORDINAL="2013" NAME="?real@?$_Complex_base@N@std@@QAENABN@Z" PURGE="4" COMMENT="" />
    <EXPORT ORDINAL="2014" NAME="?real@?$_Complex_base@N@std@@QBENXZ" PURGE="0" COMMENT="" />
    <EXPORT ORDINAL="2015" NAME="?real@?$_Complex_base@O@std@@QAEOABO@Z" PURGE="4" COMMENT="" />
    <EXPORT ORDINAL="2016" NAME="?real@?$_Complex_base@O@std@@QBEOXZ" PURGE="0" COMMENT="" />
    <EXPORT ORDINAL="2017" NAME="??$real@M@std@@YAMABV?$complex@M@0@@Z" PURGE="0" COMMENT="" />
    <EXPORT ORDINAL="2018" NAME="??$real@N@std@@YANABV?$complex@N@0@@Z" PURGE="0" COMMENT="" />
    <EXPORT ORDINAL="2019" NAME="??$real@O@std@@YAOABV?$complex@O@0@@Z" PURGE="0" COMMENT="" />
    <EXPORT ORDINAL="2020" NAME="?register_callback@ios_base@std@@QAEXP6AXW4event@12@AAV12@H@ZH@Z" PURGE="8" COMMENT="" />
    <EXPORT ORDINAL="2021" NAME="?rend@?$basic_string@DU?$char_traits@D@std@@V?$allocator@D@2@@std@@QAE?AV?$reverse_iterator@PADDAADPADH@2@XZ" PURGE="4" COMMENT="" />
    <EXPORT ORDINAL="2022" NAME="?rend@?$basic_string@DU?$char_traits@D@std@@V?$allocator@D@2@@std@@QBE?AV?$reverse_iterator@PBDDABDPBDH@2@XZ" PURGE="4" COMMENT="" />
    <EXPORT ORDINAL="2023" NAME="?rend@?$basic_string@GU?$char_traits@G@std@@V?$allocator@G@2@@std@@QAE?AV?$reverse_iterator@PAGGAAGPAGH@2@XZ" PURGE="4" COMMENT="" />
    <EXPORT ORDINAL="2024" NAME="?rend@?$basic_string@GU?$char_traits@G@std@@V?$allocator@G@2@@std@@QBE?AV?$reverse_iterator@PBGGABGPBGH@2@XZ" PURGE="4" COMMENT="" />
    <EXPORT ORDINAL="2025" NAME="?replace@?$basic_string@DU?$char_traits@D@std@@V?$allocator@D@2@@std@@QAEAAV12@IIABV12@@Z" PURGE="12" COMMENT="" />
    <EXPORT ORDINAL="2026" NAME="?replace@?$basic_string@DU?$char_traits@D@std@@V?$allocator@D@2@@std@@QAEAAV12@IIABV12@II@Z" PURGE="20" COMMENT="" />
    <EXPORT ORDINAL="2027" NAME="?replace@?$basic_string@DU?$char_traits@D@std@@V?$allocator@D@2@@std@@QAEAAV12@IIID@Z" PURGE="16" COMMENT="" />
    <EXPORT ORDINAL="2028" NAME="?replace@?$basic_string@DU?$char_traits@D@std@@V?$allocator@D@2@@std@@QAEAAV12@IIPBD@Z" PURGE="12" COMMENT="" />
    <EXPORT ORDINAL="2029" NAME="?replace@?$basic_string@DU?$char_traits@D@std@@V?$allocator@D@2@@std@@QAEAAV12@IIPBDI@Z" PURGE="16" COMMENT="" />
    <EXPORT ORDINAL="2030" NAME="?replace@?$basic_string@DU?$char_traits@D@std@@V?$allocator@D@2@@std@@QAEAAV12@PAD0ABV12@@Z" PURGE="12" COMMENT="" />
    <EXPORT ORDINAL="2031" NAME="?replace@?$basic_string@DU?$char_traits@D@std@@V?$allocator@D@2@@std@@QAEAAV12@PAD0ID@Z" PURGE="16" COMMENT="" />
    <EXPORT ORDINAL="2032" NAME="?replace@?$basic_string@DU?$char_traits@D@std@@V?$allocator@D@2@@std@@QAEAAV12@PAD0PBD1@Z" PURGE="16" COMMENT="" />
    <EXPORT ORDINAL="2033" NAME="?replace@?$basic_string@DU?$char_traits@D@std@@V?$allocator@D@2@@std@@QAEAAV12@PAD0PBD@Z" PURGE="12" COMMENT="" />
    <EXPORT ORDINAL="2034" NAME="?replace@?$basic_string@DU?$char_traits@D@std@@V?$allocator@D@2@@std@@QAEAAV12@PAD0PBDI@Z" PURGE="16" COMMENT="" />
    <EXPORT ORDINAL="2035" NAME="?replace@?$basic_string@GU?$char_traits@G@std@@V?$allocator@G@2@@std@@QAEAAV12@IIABV12@@Z" PURGE="12" COMMENT="" />
    <EXPORT ORDINAL="2036" NAME="?replace@?$basic_string@GU?$char_traits@G@std@@V?$allocator@G@2@@std@@QAEAAV12@IIABV12@II@Z" PURGE="20" COMMENT="" />
    <EXPORT ORDINAL="2037" NAME="?replace@?$basic_string@GU?$char_traits@G@std@@V?$allocator@G@2@@std@@QAEAAV12@IIIG@Z" PURGE="16" COMMENT="" />
    <EXPORT ORDINAL="2038" NAME="?replace@?$basic_string@GU?$char_traits@G@std@@V?$allocator@G@2@@std@@QAEAAV12@IIPBG@Z" PURGE="12" COMMENT="" />
    <EXPORT ORDINAL="2039" NAME="?replace@?$basic_string@GU?$char_traits@G@std@@V?$allocator@G@2@@std@@QAEAAV12@IIPBGI@Z" PURGE="16" COMMENT="" />
    <EXPORT ORDINAL="2040" NAME="?replace@?$basic_string@GU?$char_traits@G@std@@V?$allocator@G@2@@std@@QAEAAV12@PAG0ABV12@@Z" PURGE="12" COMMENT="" />
    <EXPORT ORDINAL="2041" NAME="?replace@?$basic_string@GU?$char_traits@G@std@@V?$allocator@G@2@@std@@QAEAAV12@PAG0IG@Z" PURGE="16" COMMENT="" />
    <EXPORT ORDINAL="2042" NAME="?replace@?$basic_string@GU?$char_traits@G@std@@V?$allocator@G@2@@std@@QAEAAV12@PAG0PBG1@Z" PURGE="16" COMMENT="" />
    <EXPORT ORDINAL="2043" NAME="?replace@?$basic_string@GU?$char_traits@G@std@@V?$allocator@G@2@@std@@QAEAAV12@PAG0PBG@Z" PURGE="12" COMMENT="" />
    <EXPORT ORDINAL="2044" NAME="?replace@?$basic_string@GU?$char_traits@G@std@@V?$allocator@G@2@@std@@QAEAAV12@PAG0PBGI@Z" PURGE="16" COMMENT="" />
    <EXPORT ORDINAL="2045" NAME="?reserve@?$basic_string@DU?$char_traits@D@std@@V?$allocator@D@2@@std@@QAEXI@Z" PURGE="4" COMMENT="" />
    <EXPORT ORDINAL="2046" NAME="?reserve@?$basic_string@GU?$char_traits@G@std@@V?$allocator@G@2@@std@@QAEXI@Z" PURGE="4" COMMENT="" />
    <EXPORT ORDINAL="2047" NAME="?resetiosflags@std@@YA?AU?$_Smanip@H@1@H@Z" PURGE="0" COMMENT="" />
    <EXPORT ORDINAL="2048" NAME="?resize@?$basic_string@DU?$char_traits@D@std@@V?$allocator@D@2@@std@@QAEXI@Z" PURGE="4" COMMENT="" />
    <EXPORT ORDINAL="2049" NAME="?resize@?$basic_string@DU?$char_traits@D@std@@V?$allocator@D@2@@std@@QAEXID@Z" PURGE="8" COMMENT="" />
    <EXPORT ORDINAL="2050" NAME="?resize@?$basic_string@GU?$char_traits@G@std@@V?$allocator@G@2@@std@@QAEXI@Z" PURGE="4" COMMENT="" />
    <EXPORT ORDINAL="2051" NAME="?resize@?$basic_string@GU?$char_traits@G@std@@V?$allocator@G@2@@std@@QAEXIG@Z" PURGE="8" COMMENT="" />
    <EXPORT ORDINAL="2052" NAME="?rfind@?$basic_string@DU?$char_traits@D@std@@V?$allocator@D@2@@std@@QBEIABV12@I@Z" PURGE="8" COMMENT="" />
    <EXPORT ORDINAL="2053" NAME="?rfind@?$basic_string@DU?$char_traits@D@std@@V?$allocator@D@2@@std@@QBEIDI@Z" PURGE="8" COMMENT="" />
    <EXPORT ORDINAL="2054" NAME="?rfind@?$basic_string@DU?$char_traits@D@std@@V?$allocator@D@2@@std@@QBEIPBDI@Z" PURGE="8" COMMENT="" />
    <EXPORT ORDINAL="2055" NAME="?rfind@?$basic_string@DU?$char_traits@D@std@@V?$allocator@D@2@@std@@QBEIPBDII@Z" PURGE="12" COMMENT="" />
    <EXPORT ORDINAL="2056" NAME="?rfind@?$basic_string@GU?$char_traits@G@std@@V?$allocator@G@2@@std@@QBEIABV12@I@Z" PURGE="8" COMMENT="" />
    <EXPORT ORDINAL="2057" NAME="?rfind@?$basic_string@GU?$char_traits@G@std@@V?$allocator@G@2@@std@@QBEIGI@Z" PURGE="8" COMMENT="" />
    <EXPORT ORDINAL="2058" NAME="?rfind@?$basic_string@GU?$char_traits@G@std@@V?$allocator@G@2@@std@@QBEIPBGI@Z" PURGE="8" COMMENT="" />
    <EXPORT ORDINAL="2059" NAME="?rfind@?$basic_string@GU?$char_traits@G@std@@V?$allocator@G@2@@std@@QBEIPBGII@Z" PURGE="12" COMMENT="" />
    <EXPORT ORDINAL="2060" NAME="?round_error@?$numeric_limits@C@std@@SACXZ" PURGE="0" COMMENT="" />
    <EXPORT ORDINAL="2061" NAME="?round_error@?$numeric_limits@D@std@@SADXZ" PURGE="0" COMMENT="" />
    <EXPORT ORDINAL="2062" NAME="?round_error@?$numeric_limits@E@std@@SAEXZ" PURGE="0" COMMENT="" />
    <EXPORT ORDINAL="2063" NAME="?round_error@?$numeric_limits@F@std@@SAFXZ" PURGE="0" COMMENT="" />
    <EXPORT ORDINAL="2064" NAME="?round_error@?$numeric_limits@G@std@@SAGXZ" PURGE="0" COMMENT="" />
    <EXPORT ORDINAL="2065" NAME="?round_error@?$numeric_limits@H@std@@SAHXZ" PURGE="0" COMMENT="" />
    <EXPORT ORDINAL="2066" NAME="?round_error@?$numeric_limits@I@std@@SAIXZ" PURGE="0" COMMENT="" />
    <EXPORT ORDINAL="2067" NAME="?round_error@?$numeric_limits@J@std@@SAJXZ" PURGE="0" COMMENT="" />
    <EXPORT ORDINAL="2068" NAME="?round_error@?$numeric_limits@K@std@@SAKXZ" PURGE="0" COMMENT="" />
    <EXPORT ORDINAL="2069" NAME="?round_error@?$numeric_limits@M@std@@SAMXZ" PURGE="0" COMMENT="" />
    <EXPORT ORDINAL="2070" NAME="?round_error@?$numeric_limits@N@std@@SANXZ" PURGE="0" COMMENT="" />
    <EXPORT ORDINAL="2071" NAME="?round_error@?$numeric_limits@O@std@@SAOXZ" PURGE="0" COMMENT="" />
    <EXPORT ORDINAL="2072" NAME="?round_error@?$numeric_limits@_N@std@@SA_NXZ" PURGE="0" COMMENT="" />
    <EXPORT ORDINAL="2073" NAME="?sbumpc@?$basic_streambuf@DU?$char_traits@D@std@@@std@@QAEHXZ" PURGE="0" COMMENT="" />
    <EXPORT ORDINAL="2074" NAME="?sbumpc@?$basic_streambuf@GU?$char_traits@G@std@@@std@@QAEGXZ" PURGE="0" COMMENT="" />
    <EXPORT ORDINAL="2075" NAME="?scan_is@?$ctype@D@std@@QBEPBDFPBD0@Z" PURGE="12" COMMENT="" />
    <EXPORT ORDINAL="2076" NAME="?scan_is@?$ctype@G@std@@QBEPBGFPBG0@Z" PURGE="12" COMMENT="" />
    <EXPORT ORDINAL="2077" NAME="?scan_not@?$ctype@D@std@@QBEPBDFPBD0@Z" PURGE="12" COMMENT="" />
    <EXPORT ORDINAL="2078" NAME="?scan_not@?$ctype@G@std@@QBEPBGFPBG0@Z" PURGE="12" COMMENT="" />
    <EXPORT ORDINAL="2079" NAME="?seekg@?$basic_istream@DU?$char_traits@D@std@@@std@@QAEAAV12@JW4seekdir@ios_base@2@@Z" PURGE="8" COMMENT="" />
    <EXPORT ORDINAL="2080" NAME="?seekg@?$basic_istream@DU?$char_traits@D@std@@@std@@QAEAAV12@V?$fpos@H@2@@Z" PURGE="24" COMMENT="" />
    <EXPORT ORDINAL="2081" NAME="?seekg@?$basic_istream@GU?$char_traits@G@std@@@std@@QAEAAV12@JW4seekdir@ios_base@2@@Z" PURGE="8" COMMENT="" />
    <EXPORT ORDINAL="2082" NAME="?seekg@?$basic_istream@GU?$char_traits@G@std@@@std@@QAEAAV12@V?$fpos@H@2@@Z" PURGE="24" COMMENT="" />
    <EXPORT ORDINAL="2083" NAME="?seekoff@?$basic_filebuf@DU?$char_traits@D@std@@@std@@MAE?AV?$fpos@H@2@JW4seekdir@ios_base@2@H@Z" PURGE="16" COMMENT="" />
    <EXPORT ORDINAL="2084" NAME="?seekoff@?$basic_filebuf@GU?$char_traits@G@std@@@std@@MAE?AV?$fpos@H@2@JW4seekdir@ios_base@2@H@Z" PURGE="16" COMMENT="" />
    <EXPORT ORDINAL="2085" NAME="?seekoff@?$basic_streambuf@DU?$char_traits@D@std@@@std@@MAE?AV?$fpos@H@2@JW4seekdir@ios_base@2@H@Z" PURGE="16" COMMENT="" />
    <EXPORT ORDINAL="2086" NAME="?seekoff@?$basic_streambuf@GU?$char_traits@G@std@@@std@@MAE?AV?$fpos@H@2@JW4seekdir@ios_base@2@H@Z" PURGE="16" COMMENT="" />
    <EXPORT ORDINAL="2087" NAME="?seekoff@?$basic_stringbuf@DU?$char_traits@D@std@@V?$allocator@D@2@@std@@MAE?AV?$fpos@H@2@JW4seekdir@ios_base@2@H@Z" PURGE="16" COMMENT="" />
    <EXPORT ORDINAL="2088" NAME="?seekoff@?$basic_stringbuf@GU?$char_traits@G@std@@V?$allocator@G@2@@std@@MAE?AV?$fpos@H@2@JW4seekdir@ios_base@2@H@Z" PURGE="16" COMMENT="" />
    <EXPORT ORDINAL="2089" NAME="?seekoff@strstreambuf@std@@MAE?AV?$fpos@H@2@JW4seekdir@ios_base@2@H@Z" PURGE="16" COMMENT="" />
    <EXPORT ORDINAL="2090" NAME="?seekp@?$basic_ostream@DU?$char_traits@D@std@@@std@@QAEAAV12@JW4seekdir@ios_base@2@@Z" PURGE="8" COMMENT="" />
    <EXPORT ORDINAL="2091" NAME="?seekp@?$basic_ostream@DU?$char_traits@D@std@@@std@@QAEAAV12@V?$fpos@H@2@@Z" PURGE="24" COMMENT="" />
    <EXPORT ORDINAL="2092" NAME="?seekp@?$basic_ostream@GU?$char_traits@G@std@@@std@@QAEAAV12@JW4seekdir@ios_base@2@@Z" PURGE="8" COMMENT="" />
    <EXPORT ORDINAL="2093" NAME="?seekp@?$basic_ostream@GU?$char_traits@G@std@@@std@@QAEAAV12@V?$fpos@H@2@@Z" PURGE="24" COMMENT="" />
    <EXPORT ORDINAL="2094" NAME="?seekpos@?$basic_filebuf@DU?$char_traits@D@std@@@std@@MAE?AV?$fpos@H@2@V32@H@Z" PURGE="32" COMMENT="" />
    <EXPORT ORDINAL="2095" NAME="?seekpos@?$basic_filebuf@GU?$char_traits@G@std@@@std@@MAE?AV?$fpos@H@2@V32@H@Z" PURGE="32" COMMENT="" />
    <EXPORT ORDINAL="2096" NAME="?seekpos@?$basic_streambuf@DU?$char_traits@D@std@@@std@@MAE?AV?$fpos@H@2@V32@H@Z" PURGE="32" COMMENT="" />
    <EXPORT ORDINAL="2097" NAME="?seekpos@?$basic_streambuf@GU?$char_traits@G@std@@@std@@MAE?AV?$fpos@H@2@V32@H@Z" PURGE="32" COMMENT="" />
    <EXPORT ORDINAL="2098" NAME="?seekpos@?$basic_stringbuf@DU?$char_traits@D@std@@V?$allocator@D@2@@std@@MAE?AV?$fpos@H@2@V32@H@Z" PURGE="32" COMMENT="" />
    <EXPORT ORDINAL="2099" NAME="?seekpos@?$basic_stringbuf@GU?$char_traits@G@std@@V?$allocator@G@2@@std@@MAE?AV?$fpos@H@2@V32@H@Z" PURGE="32" COMMENT="" />
    <EXPORT ORDINAL="2100" NAME="?seekpos@strstreambuf@std@@MAE?AV?$fpos@H@2@V32@H@Z" PURGE="32" COMMENT="" />
    <EXPORT ORDINAL="2101" NAME="?setbase@std@@YA?AU?$_Smanip@H@1@H@Z" PURGE="0" COMMENT="" />
    <EXPORT ORDINAL="2102" NAME="?setbuf@?$basic_filebuf@DU?$char_traits@D@std@@@std@@MAEPAV?$basic_streambuf@DU?$char_traits@D@std@@@2@PADH@Z" PURGE="8" COMMENT="" />
    <EXPORT ORDINAL="2103" NAME="?setbuf@?$basic_filebuf@GU?$char_traits@G@std@@@std@@MAEPAV?$basic_streambuf@GU?$char_traits@G@std@@@2@PAGH@Z" PURGE="8" COMMENT="" />
    <EXPORT ORDINAL="2104" NAME="?setbuf@?$basic_streambuf@DU?$char_traits@D@std@@@std@@MAEPAV12@PADH@Z" PURGE="8" COMMENT="" />
    <EXPORT ORDINAL="2105" NAME="?setbuf@?$basic_streambuf@GU?$char_traits@G@std@@@std@@MAEPAV12@PAGH@Z" PURGE="8" COMMENT="" />
    <EXPORT ORDINAL="2106" NAME="?setf@ios_base@std@@QAEHH@Z" PURGE="4" COMMENT="" />
    <EXPORT ORDINAL="2107" NAME="?setf@ios_base@std@@QAEHHH@Z" PURGE="8" COMMENT="" />
    <EXPORT ORDINAL="2108" NAME="?setg@?$basic_streambuf@DU?$char_traits@D@std@@@std@@IAEXPAD00@Z" PURGE="12" COMMENT="" />
    <EXPORT ORDINAL="2109" NAME="?setg@?$basic_streambuf@GU?$char_traits@G@std@@@std@@IAEXPAG00@Z" PURGE="12" COMMENT="" />
    <EXPORT ORDINAL="2110" NAME="?setiosflags@std@@YA?AU?$_Smanip@H@1@H@Z" PURGE="0" COMMENT="" />
    <EXPORT ORDINAL="2111" NAME="?setp@?$basic_streambuf@DU?$char_traits@D@std@@@std@@IAEXPAD00@Z" PURGE="12" COMMENT="" />
    <EXPORT ORDINAL="2112" NAME="?setp@?$basic_streambuf@DU?$char_traits@D@std@@@std@@IAEXPAD0@Z" PURGE="8" COMMENT="" />
    <EXPORT ORDINAL="2113" NAME="?setp@?$basic_streambuf@GU?$char_traits@G@std@@@std@@IAEXPAG00@Z" PURGE="12" COMMENT="" />
    <EXPORT ORDINAL="2114" NAME="?setp@?$basic_streambuf@GU?$char_traits@G@std@@@std@@IAEXPAG0@Z" PURGE="8" COMMENT="" />
    <EXPORT ORDINAL="2115" NAME="?setprecision@std@@YA?AU?$_Smanip@H@1@H@Z" PURGE="0" COMMENT="" />
    <EXPORT ORDINAL="2116" NAME="?setstate@?$basic_ios@DU?$char_traits@D@std@@@std@@QAEXF@Z" PURGE="4" COMMENT="" />
    <EXPORT ORDINAL="2117" NAME="?setstate@?$basic_ios@DU?$char_traits@D@std@@@std@@QAEXH_N@Z" PURGE="8" COMMENT="" />
    <EXPORT ORDINAL="2118" NAME="?setstate@?$basic_ios@GU?$char_traits@G@std@@@std@@QAEXF@Z" PURGE="4" COMMENT="" />
    <EXPORT ORDINAL="2119" NAME="?setstate@?$basic_ios@GU?$char_traits@G@std@@@std@@QAEXH_N@Z" PURGE="8" COMMENT="" />
    <EXPORT ORDINAL="2120" NAME="?setstate@ios_base@std@@QAEXF@Z" PURGE="4" COMMENT="" />
    <EXPORT ORDINAL="2121" NAME="?setstate@ios_base@std@@QAEXH_N@Z" PURGE="8" COMMENT="" />
    <EXPORT ORDINAL="2122" NAME="?setw@std@@YA?AU?$_Smanip@H@1@H@Z" PURGE="0" COMMENT="" />
    <EXPORT ORDINAL="2123" NAME="?sgetc@?$basic_streambuf@DU?$char_traits@D@std@@@std@@QAEHXZ" PURGE="0" COMMENT="" />
    <EXPORT ORDINAL="2124" NAME="?sgetc@?$basic_streambuf@GU?$char_traits@G@std@@@std@@QAEGXZ" PURGE="0" COMMENT="" />
    <EXPORT ORDINAL="2125" NAME="?sgetn@?$basic_streambuf@DU?$char_traits@D@std@@@std@@QAEHPADH@Z" PURGE="8" COMMENT="" />
    <EXPORT ORDINAL="2126" NAME="?sgetn@?$basic_streambuf@GU?$char_traits@G@std@@@std@@QAEHPAGH@Z" PURGE="8" COMMENT="" />
    <EXPORT ORDINAL="2127" NAME="?showmanyc@?$basic_streambuf@DU?$char_traits@D@std@@@std@@MAEHXZ" PURGE="0" COMMENT="" />
    <EXPORT ORDINAL="2128" NAME="?showmanyc@?$basic_streambuf@GU?$char_traits@G@std@@@std@@MAEHXZ" PURGE="0" COMMENT="" />
    <EXPORT ORDINAL="2129" NAME="?signaling_NaN@?$numeric_limits@C@std@@SACXZ" PURGE="0" COMMENT="" />
    <EXPORT ORDINAL="2130" NAME="?signaling_NaN@?$numeric_limits@D@std@@SADXZ" PURGE="0" COMMENT="" />
    <EXPORT ORDINAL="2131" NAME="?signaling_NaN@?$numeric_limits@E@std@@SAEXZ" PURGE="0" COMMENT="" />
    <EXPORT ORDINAL="2132" NAME="?signaling_NaN@?$numeric_limits@F@std@@SAFXZ" PURGE="0" COMMENT="" />
    <EXPORT ORDINAL="2133" NAME="?signaling_NaN@?$numeric_limits@G@std@@SAGXZ" PURGE="0" COMMENT="" />
    <EXPORT ORDINAL="2134" NAME="?signaling_NaN@?$numeric_limits@H@std@@SAHXZ" PURGE="0" COMMENT="" />
    <EXPORT ORDINAL="2135" NAME="?signaling_NaN@?$numeric_limits@I@std@@SAIXZ" PURGE="0" COMMENT="" />
    <EXPORT ORDINAL="2136" NAME="?signaling_NaN@?$numeric_limits@J@std@@SAJXZ" PURGE="0" COMMENT="" />
    <EXPORT ORDINAL="2137" NAME="?signaling_NaN@?$numeric_limits@K@std@@SAKXZ" PURGE="0" COMMENT="" />
    <EXPORT ORDINAL="2138" NAME="?signaling_NaN@?$numeric_limits@M@std@@SAMXZ" PURGE="0" COMMENT="" />
    <EXPORT ORDINAL="2139" NAME="?signaling_NaN@?$numeric_limits@N@std@@SANXZ" PURGE="0" COMMENT="" />
    <EXPORT ORDINAL="2140" NAME="?signaling_NaN@?$numeric_limits@O@std@@SAOXZ" PURGE="0" COMMENT="" />
    <EXPORT ORDINAL="2141" NAME="?signaling_NaN@?$numeric_limits@_N@std@@SA_NXZ" PURGE="0" COMMENT="" />
    <EXPORT ORDINAL="2142" NAME="?sin@?$_Ctr@M@std@@SAMM@Z" PURGE="0" COMMENT="" />
    <EXPORT ORDINAL="2143" NAME="?sin@?$_Ctr@N@std@@SANN@Z" PURGE="-1" COMMENT="" />
    <EXPORT ORDINAL="2144" NAME="?sin@?$_Ctr@O@std@@SAOO@Z" PURGE="-1" COMMENT="" />
    <EXPORT ORDINAL="2145" NAME="??$sin@M@std@@YA?AV?$complex@M@0@ABV10@@Z" PURGE="0" COMMENT="" />
    <EXPORT ORDINAL="2146" NAME="??$sin@N@std@@YA?AV?$complex@N@0@ABV10@@Z" PURGE="0" COMMENT="" />
    <EXPORT ORDINAL="2147" NAME="??$sin@O@std@@YA?AV?$complex@O@0@ABV10@@Z" PURGE="0" COMMENT="" />
    <EXPORT ORDINAL="2148" NAME="??$sinh@M@std@@YA?AV?$complex@M@0@ABV10@@Z" PURGE="0" COMMENT="" />
    <EXPORT ORDINAL="2149" NAME="??$sinh@N@std@@YA?AV?$complex@N@0@ABV10@@Z" PURGE="0" COMMENT="" />
    <EXPORT ORDINAL="2150" NAME="??$sinh@O@std@@YA?AV?$complex@O@0@ABV10@@Z" PURGE="0" COMMENT="" />
    <EXPORT ORDINAL="2151" NAME="?size@?$basic_string@DU?$char_traits@D@std@@V?$allocator@D@2@@std@@QBEIXZ" PURGE="0" COMMENT="" />
    <EXPORT ORDINAL="2152" NAME="?size@?$basic_string@GU?$char_traits@G@std@@V?$allocator@G@2@@std@@QBEIXZ" PURGE="0" COMMENT="" />
    <EXPORT ORDINAL="2153" NAME="?snextc@?$basic_streambuf@DU?$char_traits@D@std@@@std@@QAEHXZ" PURGE="0" COMMENT="" />
    <EXPORT ORDINAL="2154" NAME="?snextc@?$basic_streambuf@GU?$char_traits@G@std@@@std@@QAEGXZ" PURGE="0" COMMENT="" />
    <EXPORT ORDINAL="2155" NAME="?sputbackc@?$basic_streambuf@DU?$char_traits@D@std@@@std@@QAEHD@Z" PURGE="4" COMMENT="" />
    <EXPORT ORDINAL="2156" NAME="?sputbackc@?$basic_streambuf@GU?$char_traits@G@std@@@std@@QAEGG@Z" PURGE="4" COMMENT="" />
    <EXPORT ORDINAL="2157" NAME="?sputc@?$basic_streambuf@DU?$char_traits@D@std@@@std@@QAEHD@Z" PURGE="4" COMMENT="" />
    <EXPORT ORDINAL="2158" NAME="?sputc@?$basic_streambuf@GU?$char_traits@G@std@@@std@@QAEGG@Z" PURGE="4" COMMENT="" />
    <EXPORT ORDINAL="2159" NAME="?sputn@?$basic_streambuf@DU?$char_traits@D@std@@@std@@QAEHPBDH@Z" PURGE="8" COMMENT="" />
    <EXPORT ORDINAL="2160" NAME="?sputn@?$basic_streambuf@GU?$char_traits@G@std@@@std@@QAEHPBGH@Z" PURGE="8" COMMENT="" />
    <EXPORT ORDINAL="2161" NAME="?sqrt@?$_Ctr@M@std@@SAMM@Z" PURGE="0" COMMENT="" />
    <EXPORT ORDINAL="2162" NAME="?sqrt@?$_Ctr@N@std@@SANN@Z" PURGE="-1" COMMENT="" />
    <EXPORT ORDINAL="2163" NAME="?sqrt@?$_Ctr@O@std@@SAOO@Z" PURGE="-1" COMMENT="" />
    <EXPORT ORDINAL="2164" NAME="??$sqrt@M@std@@YA?AV?$complex@M@0@ABV10@@Z" PURGE="0" COMMENT="" />
    <EXPORT ORDINAL="2165" NAME="??$sqrt@N@std@@YA?AV?$complex@N@0@ABV10@@Z" PURGE="0" COMMENT="" />
    <EXPORT ORDINAL="2166" NAME="??$sqrt@O@std@@YA?AV?$complex@O@0@ABV10@@Z" PURGE="0" COMMENT="" />
    <EXPORT ORDINAL="2167" NAME="?stossc@?$basic_streambuf@DU?$char_traits@D@std@@@std@@QAEXXZ" PURGE="0" COMMENT="" />
    <EXPORT ORDINAL="2168" NAME="?stossc@?$basic_streambuf@GU?$char_traits@G@std@@@std@@QAEXXZ" PURGE="0" COMMENT="" />
    <EXPORT ORDINAL="2169" NAME="?str@?$basic_istringstream@DU?$char_traits@D@std@@V?$allocator@D@2@@std@@QAEXABV?$basic_string@DU?$char_traits@D@std@@V?$allocator@D@2@@2@@Z" PURGE="4" COMMENT="" />
    <EXPORT ORDINAL="2170" NAME="?str@?$basic_istringstream@DU?$char_traits@D@std@@V?$allocator@D@2@@std@@QBE?AV?$basic_string@DU?$char_traits@D@std@@V?$allocator@D@2@@2@XZ" PURGE="4" COMMENT="" />
    <EXPORT ORDINAL="2171" NAME="?str@?$basic_istringstream@GU?$char_traits@G@std@@V?$allocator@G@2@@std@@QAEXABV?$basic_string@GU?$char_traits@G@std@@V?$allocator@G@2@@2@@Z" PURGE="4" COMMENT="" />
    <EXPORT ORDINAL="2172" NAME="?str@?$basic_istringstream@GU?$char_traits@G@std@@V?$allocator@G@2@@std@@QBE?AV?$basic_string@GU?$char_traits@G@std@@V?$allocator@G@2@@2@XZ" PURGE="4" COMMENT="" />
    <EXPORT ORDINAL="2173" NAME="?str@?$basic_ostringstream@DU?$char_traits@D@std@@V?$allocator@D@2@@std@@QAEXABV?$basic_string@DU?$char_traits@D@std@@V?$allocator@D@2@@2@@Z" PURGE="4" COMMENT="" />
    <EXPORT ORDINAL="2174" NAME="?str@?$basic_ostringstream@DU?$char_traits@D@std@@V?$allocator@D@2@@std@@QBE?AV?$basic_string@DU?$char_traits@D@std@@V?$allocator@D@2@@2@XZ" PURGE="4" COMMENT="" />
    <EXPORT ORDINAL="2175" NAME="?str@?$basic_ostringstream@GU?$char_traits@G@std@@V?$allocator@G@2@@std@@QAEXABV?$basic_string@GU?$char_traits@G@std@@V?$allocator@G@2@@2@@Z" PURGE="4" COMMENT="" />
    <EXPORT ORDINAL="2176" NAME="?str@?$basic_ostringstream@GU?$char_traits@G@std@@V?$allocator@G@2@@std@@QBE?AV?$basic_string@GU?$char_traits@G@std@@V?$allocator@G@2@@2@XZ" PURGE="4" COMMENT="" />
    <EXPORT ORDINAL="2177" NAME="?str@?$basic_stringbuf@DU?$char_traits@D@std@@V?$allocator@D@2@@std@@QAEXABV?$basic_string@DU?$char_traits@D@std@@V?$allocator@D@2@@2@@Z" PURGE="4" COMMENT="" />
    <EXPORT ORDINAL="2178" NAME="?str@?$basic_stringbuf@DU?$char_traits@D@std@@V?$allocator@D@2@@std@@QBE?AV?$basic_string@DU?$char_traits@D@std@@V?$allocator@D@2@@2@XZ" PURGE="4" COMMENT="" />
    <EXPORT ORDINAL="2179" NAME="?str@?$basic_stringbuf@GU?$char_traits@G@std@@V?$allocator@G@2@@std@@QAEXABV?$basic_string@GU?$char_traits@G@std@@V?$allocator@G@2@@2@@Z" PURGE="4" COMMENT="" />
    <EXPORT ORDINAL="2180" NAME="?str@?$basic_stringbuf@GU?$char_traits@G@std@@V?$allocator@G@2@@std@@QBE?AV?$basic_string@GU?$char_traits@G@std@@V?$allocator@G@2@@2@XZ" PURGE="4" COMMENT="" />
    <EXPORT ORDINAL="2181" NAME="?str@?$basic_stringstream@DU?$char_traits@D@std@@V?$allocator@D@2@@std@@QAEXABV?$basic_string@DU?$char_traits@D@std@@V?$allocator@D@2@@2@@Z" PURGE="4" COMMENT="" />
    <EXPORT ORDINAL="2182" NAME="?str@?$basic_stringstream@DU?$char_traits@D@std@@V?$allocator@D@2@@std@@QBE?AV?$basic_string@DU?$char_traits@D@std@@V?$allocator@D@2@@2@XZ" PURGE="4" COMMENT="" />
    <EXPORT ORDINAL="2183" NAME="?str@?$basic_stringstream@GU?$char_traits@G@std@@V?$allocator@G@2@@std@@QAEXABV?$basic_string@GU?$char_traits@G@std@@V?$allocator@G@2@@2@@Z" PURGE="4" COMMENT="" />
    <EXPORT ORDINAL="2184" NAME="?str@?$basic_stringstream@GU?$char_traits@G@std@@V?$allocator@G@2@@std@@QBE?AV?$basic_string@GU?$char_traits@G@std@@V?$allocator@G@2@@2@XZ" PURGE="4" COMMENT="" />
    <EXPORT ORDINAL="2185" NAME="?substr@?$basic_string@DU?$char_traits@D@std@@V?$allocator@D@2@@std@@QBE?AV12@II@Z" PURGE="12" COMMENT="" />
    <EXPORT ORDINAL="2186" NAME="?substr@?$basic_string@GU?$char_traits@G@std@@V?$allocator@G@2@@std@@QBE?AV12@II@Z" PURGE="12" COMMENT="" />
    <EXPORT ORDINAL="2187" NAME="?sungetc@?$basic_streambuf@DU?$char_traits@D@std@@@std@@QAEHXZ" PURGE="0" COMMENT="" />
    <EXPORT ORDINAL="2188" NAME="?sungetc@?$basic_streambuf@GU?$char_traits@G@std@@@std@@QAEGXZ" PURGE="0" COMMENT="" />
    <EXPORT ORDINAL="2189" NAME="?swap@?$basic_string@DU?$char_traits@D@std@@V?$allocator@D@2@@std@@QAEXAAV12@@Z" PURGE="4" COMMENT="" />
    <EXPORT ORDINAL="2190" NAME="?swap@?$basic_string@GU?$char_traits@G@std@@V?$allocator@G@2@@std@@QAEXAAV12@@Z" PURGE="4" COMMENT="" />
    <EXPORT ORDINAL="2191" NAME="?sync@?$basic_filebuf@DU?$char_traits@D@std@@@std@@MAEHXZ" PURGE="0" COMMENT="" />
    <EXPORT ORDINAL="2192" NAME="?sync@?$basic_filebuf@GU?$char_traits@G@std@@@std@@MAEHXZ" PURGE="0" COMMENT="" />
    <EXPORT ORDINAL="2193" NAME="?sync@?$basic_istream@DU?$char_traits@D@std@@@std@@QAEHXZ" PURGE="0" COMMENT="" />
    <EXPORT ORDINAL="2194" NAME="?sync@?$basic_istream@GU?$char_traits@G@std@@@std@@QAEHXZ" PURGE="0" COMMENT="" />
    <EXPORT ORDINAL="2195" NAME="?sync@?$basic_streambuf@DU?$char_traits@D@std@@@std@@MAEHXZ" PURGE="0" COMMENT="" />
    <EXPORT ORDINAL="2196" NAME="?sync@?$basic_streambuf@GU?$char_traits@G@std@@@std@@MAEHXZ" PURGE="0" COMMENT="" />
    <EXPORT ORDINAL="2197" NAME="?sync_with_stdio@ios_base@std@@SA_N_N@Z" PURGE="0" COMMENT="" />
    <EXPORT ORDINAL="2198" NAME="?table@?$ctype@D@std@@IBEPBFXZ" PURGE="0" COMMENT="" />
    <EXPORT ORDINAL="2199" NAME="?table_size@?$ctype@D@std@@2IB" PURGE="-1" COMMENT="" />
    <EXPORT ORDINAL="2200" NAME="?tellg@?$basic_istream@DU?$char_traits@D@std@@@std@@QAE?AV?$fpos@H@2@XZ" PURGE="4" COMMENT="" />
    <EXPORT ORDINAL="2201" NAME="?tellg@?$basic_istream@GU?$char_traits@G@std@@@std@@QAE?AV?$fpos@H@2@XZ" PURGE="4" COMMENT="" />
    <EXPORT ORDINAL="2202" NAME="?tellp@?$basic_ostream@DU?$char_traits@D@std@@@std@@QAE?AV?$fpos@H@2@XZ" PURGE="4" COMMENT="" />
    <EXPORT ORDINAL="2203" NAME="?tellp@?$basic_ostream@GU?$char_traits@G@std@@@std@@QAE?AV?$fpos@H@2@XZ" PURGE="4" COMMENT="" />
    <EXPORT ORDINAL="2204" NAME="?thousands_sep@?$_Mpunct@D@std@@QBEDXZ" PURGE="0" COMMENT="" />
    <EXPORT ORDINAL="2205" NAME="?thousands_sep@?$_Mpunct@G@std@@QBEGXZ" PURGE="0" COMMENT="" />
    <EXPORT ORDINAL="2206" NAME="?thousands_sep@?$numpunct@D@std@@QBEDXZ" PURGE="0" COMMENT="" />
    <EXPORT ORDINAL="2207" NAME="?thousands_sep@?$numpunct@G@std@@QBEGXZ" PURGE="0" COMMENT="" />
    <EXPORT ORDINAL="2208" NAME="?tie@?$basic_ios@DU?$char_traits@D@std@@@std@@QAEPAV?$basic_ostream@DU?$char_traits@D@std@@@2@PAV32@@Z" PURGE="4" COMMENT="" />
    <EXPORT ORDINAL="2209" NAME="?tie@?$basic_ios@DU?$char_traits@D@std@@@std@@QBEPAV?$basic_ostream@DU?$char_traits@D@std@@@2@XZ" PURGE="0" COMMENT="" />
    <EXPORT ORDINAL="2210" NAME="?tie@?$basic_ios@GU?$char_traits@G@std@@@std@@QAEPAV?$basic_ostream@GU?$char_traits@G@std@@@2@PAV32@@Z" PURGE="4" COMMENT="" />
    <EXPORT ORDINAL="2211" NAME="?tie@?$basic_ios@GU?$char_traits@G@std@@@std@@QBEPAV?$basic_ostream@GU?$char_traits@G@std@@@2@XZ" PURGE="0" COMMENT="" />
    <EXPORT ORDINAL="2212" NAME="?to_char_type@?$char_traits@D@std@@SADABH@Z" PURGE="0" COMMENT="" />
    <EXPORT ORDINAL="2213" NAME="?to_char_type@?$char_traits@G@std@@SAGABG@Z" PURGE="0" COMMENT="" />
    <EXPORT ORDINAL="2214" NAME="?to_int_type@?$char_traits@D@std@@SAHABD@Z" PURGE="0" COMMENT="" />
    <EXPORT ORDINAL="2215" NAME="?to_int_type@?$char_traits@G@std@@SAGABG@Z" PURGE="0" COMMENT="" />
    <EXPORT ORDINAL="2216" NAME="?tolower@?$ctype@D@std@@QBEDD@Z" PURGE="4" COMMENT="" />
    <EXPORT ORDINAL="2217" NAME="?tolower@?$ctype@D@std@@QBEPBDPADPBD@Z" PURGE="8" COMMENT="" />
    <EXPORT ORDINAL="2218" NAME="?tolower@?$ctype@G@std@@QBEGG@Z" PURGE="4" COMMENT="" />
    <EXPORT ORDINAL="2219" NAME="?tolower@?$ctype@G@std@@QBEPBGPAGPBG@Z" PURGE="8" COMMENT="" />
    <EXPORT ORDINAL="2220" NAME="?toupper@?$ctype@D@std@@QBEDD@Z" PURGE="4" COMMENT="" />
    <EXPORT ORDINAL="2221" NAME="?toupper@?$ctype@D@std@@QBEPBDPADPBD@Z" PURGE="8" COMMENT="" />
    <EXPORT ORDINAL="2222" NAME="?toupper@?$ctype@G@std@@QBEGG@Z" PURGE="4" COMMENT="" />
    <EXPORT ORDINAL="2223" NAME="?toupper@?$ctype@G@std@@QBEPBGPAGPBG@Z" PURGE="8" COMMENT="" />
    <EXPORT ORDINAL="2224" NAME="?transform@?$collate@D@std@@QBE?AV?$basic_string@DU?$char_traits@D@std@@V?$allocator@D@2@@2@PBD0@Z" PURGE="12" COMMENT="" />
    <EXPORT ORDINAL="2225" NAME="?transform@?$collate@G@std@@QBE?AV?$basic_string@GU?$char_traits@G@std@@V?$allocator@G@2@@2@PBG0@Z" PURGE="12" COMMENT="" />
    <EXPORT ORDINAL="2226" NAME="?truename@?$numpunct@D@std@@QBE?AV?$basic_string@DU?$char_traits@D@std@@V?$allocator@D@2@@2@XZ" PURGE="4" COMMENT="" />
    <EXPORT ORDINAL="2227" NAME="?truename@?$numpunct@G@std@@QBE?AV?$basic_string@GU?$char_traits@G@std@@V?$allocator@G@2@@2@XZ" PURGE="4" COMMENT="" />
    <EXPORT ORDINAL="2228" NAME="?uflow@?$basic_filebuf@DU?$char_traits@D@std@@@std@@MAEHXZ" PURGE="0" COMMENT="" />
    <EXPORT ORDINAL="2229" NAME="?uflow@?$basic_filebuf@GU?$char_traits@G@std@@@std@@MAEGXZ" PURGE="0" COMMENT="" />
    <EXPORT ORDINAL="2230" NAME="?uflow@?$basic_streambuf@DU?$char_traits@D@std@@@std@@MAEHXZ" PURGE="0" COMMENT="" />
    <EXPORT ORDINAL="2231" NAME="?uflow@?$basic_streambuf@GU?$char_traits@G@std@@@std@@MAEGXZ" PURGE="0" COMMENT="" />
    <EXPORT ORDINAL="2232" NAME="?uncaught_exception@std@@YA_NXZ" PURGE="0" COMMENT="" />
    <EXPORT ORDINAL="2233" NAME="?underflow@?$basic_filebuf@DU?$char_traits@D@std@@@std@@MAEHXZ" PURGE="0" COMMENT="" />
    <EXPORT ORDINAL="2234" NAME="?underflow@?$basic_filebuf@GU?$char_traits@G@std@@@std@@MAEGXZ" PURGE="0" COMMENT="" />
    <EXPORT ORDINAL="2235" NAME="?underflow@?$basic_streambuf@DU?$char_traits@D@std@@@std@@MAEHXZ" PURGE="0" COMMENT="" />
    <EXPORT ORDINAL="2236" NAME="?underflow@?$basic_streambuf@GU?$char_traits@G@std@@@std@@MAEGXZ" PURGE="0" COMMENT="" />
    <EXPORT ORDINAL="2237" NAME="?underflow@?$basic_stringbuf@DU?$char_traits@D@std@@V?$allocator@D@2@@std@@MAEHXZ" PURGE="0" COMMENT="" />
    <EXPORT ORDINAL="2238" NAME="?underflow@?$basic_stringbuf@GU?$char_traits@G@std@@V?$allocator@G@2@@std@@MAEGXZ" PURGE="0" COMMENT="" />
    <EXPORT ORDINAL="2239" NAME="?underflow@strstreambuf@std@@MAEHXZ" PURGE="0" COMMENT="" />
    <EXPORT ORDINAL="2240" NAME="?unget@?$basic_istream@DU?$char_traits@D@std@@@std@@QAEAAV12@XZ" PURGE="0" COMMENT="" />
    <EXPORT ORDINAL="2241" NAME="?unget@?$basic_istream@GU?$char_traits@G@std@@@std@@QAEAAV12@XZ" PURGE="0" COMMENT="" />
    <EXPORT ORDINAL="2242" NAME="?unsetf@ios_base@std@@QAEXH@Z" PURGE="4" COMMENT="" />
    <EXPORT ORDINAL="2243" NAME="?wcerr@std@@3V?$basic_ostream@GU?$char_traits@G@std@@@1@A" PURGE="-1" COMMENT="" />
    <EXPORT ORDINAL="2244" NAME="?wcin@std@@3V?$basic_istream@GU?$char_traits@G@std@@@1@A" PURGE="-1" COMMENT="" />
    <EXPORT ORDINAL="2245" NAME="?wclog@std@@3V?$basic_ostream@GU?$char_traits@G@std@@@1@A" PURGE="-1" COMMENT="" />
    <EXPORT ORDINAL="2246" NAME="?wcout@std@@3V?$basic_ostream@GU?$char_traits@G@std@@@1@A" PURGE="-1" COMMENT="" />
    <EXPORT ORDINAL="2247" NAME="?what@logic_error@std@@UBEPBDXZ" PURGE="0" COMMENT="" />
    <EXPORT ORDINAL="2248" NAME="?what@runtime_error@std@@UBEPBDXZ" PURGE="0" COMMENT="" />
    <EXPORT ORDINAL="2249" NAME="?widen@?$basic_ios@DU?$char_traits@D@std@@@std@@QBEDD@Z" PURGE="4" COMMENT="" />
    <EXPORT ORDINAL="2250" NAME="?widen@?$basic_ios@GU?$char_traits@G@std@@@std@@QBEGD@Z" PURGE="4" COMMENT="" />
    <EXPORT ORDINAL="2251" NAME="?widen@?$ctype@D@std@@QBEDD@Z" PURGE="4" COMMENT="" />
    <EXPORT ORDINAL="2252" NAME="?widen@?$ctype@D@std@@QBEPBDPBD0PAD@Z" PURGE="12" COMMENT="" />
    <EXPORT ORDINAL="2253" NAME="?widen@?$ctype@G@std@@QBEGD@Z" PURGE="4" COMMENT="" />
    <EXPORT ORDINAL="2254" NAME="?widen@?$ctype@G@std@@QBEPBDPBD0PAG@Z" PURGE="12" COMMENT="" />
    <EXPORT ORDINAL="2255" NAME="?width@ios_base@std@@QAEHH@Z" PURGE="4" COMMENT="" />
    <EXPORT ORDINAL="2256" NAME="?width@ios_base@std@@QBEHXZ" PURGE="0" COMMENT="" />
    <EXPORT ORDINAL="2257" NAME="?write@?$basic_ostream@DU?$char_traits@D@std@@@std@@QAEAAV12@PBDH@Z" PURGE="8" COMMENT="" />
    <EXPORT ORDINAL="2258" NAME="?write@?$basic_ostream@GU?$char_traits@G@std@@@std@@QAEAAV12@PBGH@Z" PURGE="8" COMMENT="" />
    <EXPORT ORDINAL="2259" NAME="?ws@std@@YAAAV?$basic_istream@DU?$char_traits@D@std@@@1@AAV21@@Z" PURGE="0" COMMENT="" />
    <EXPORT ORDINAL="2260" NAME="?ws@std@@YAAAV?$basic_istream@GU?$char_traits@G@std@@@1@AAV21@@Z" PURGE="0" COMMENT="" />
    <EXPORT ORDINAL="2261" NAME="?xalloc@ios_base@std@@SAHXZ" PURGE="0" COMMENT="" />
    <EXPORT ORDINAL="2262" NAME="?xsgetn@?$basic_streambuf@DU?$char_traits@D@std@@@std@@MAEHPADH@Z" PURGE="8" COMMENT="" />
    <EXPORT ORDINAL="2263" NAME="?xsgetn@?$basic_streambuf@GU?$char_traits@G@std@@@std@@MAEHPAGH@Z" PURGE="8" COMMENT="" />
    <EXPORT ORDINAL="2264" NAME="?xsputn@?$basic_streambuf@DU?$char_traits@D@std@@@std@@MAEHPBDH@Z" PURGE="8" COMMENT="" />
    <EXPORT ORDINAL="2265" NAME="?xsputn@?$basic_streambuf@GU?$char_traits@G@std@@@std@@MAEHPBGH@Z" PURGE="8" COMMENT="" />
    <EXPORT ORDINAL="2266" NAME="_Cosh" PURGE="0" COMMENT="" />
    <EXPORT ORDINAL="2267" NAME="_Denorm" PURGE="-1" COMMENT="" />
    <EXPORT ORDINAL="2268" NAME="_Dnorm" PURGE="0" COMMENT="" />
    <EXPORT ORDINAL="2269" NAME="_Dscale" PURGE="0" COMMENT="" />
    <EXPORT ORDINAL="2270" NAME="_Dtest" PURGE="0" COMMENT="" />
    <EXPORT ORDINAL="2271" NAME="_Eps" PURGE="-1" COMMENT="" />
    <EXPORT ORDINAL="2272" NAME="_Exp" PURGE="0" COMMENT="" />
    <EXPORT ORDINAL="2273" NAME="_FCosh" PURGE="0" COMMENT="" />
    <EXPORT ORDINAL="2274" NAME="_FDenorm" PURGE="-1" COMMENT="" />
    <EXPORT ORDINAL="2275" NAME="_FDnorm" PURGE="0" COMMENT="" />
    <EXPORT ORDINAL="2276" NAME="_FDscale" PURGE="0" COMMENT="" />
    <EXPORT ORDINAL="2277" NAME="_FDtest" PURGE="0" COMMENT="" />
    <EXPORT ORDINAL="2278" NAME="_FEps" PURGE="-1" COMMENT="" />
    <EXPORT ORDINAL="2279" NAME="_FExp" PURGE="0" COMMENT="" />
    <EXPORT ORDINAL="2280" NAME="_FInf" PURGE="-1" COMMENT="" />
    <EXPORT ORDINAL="2281" NAME="_FNan" PURGE="-1" COMMENT="" />
    <EXPORT ORDINAL="2282" NAME="_FRteps" PURGE="-1" COMMENT="" />
    <EXPORT ORDINAL="2283" NAME="_FSinh" PURGE="0" COMMENT="" />
    <EXPORT ORDINAL="2284" NAME="_FSnan" PURGE="-1" COMMENT="" />
    <EXPORT ORDINAL="2285" NAME="_FXbig" PURGE="-1" COMMENT="" />
    <EXPORT ORDINAL="2286" NAME="_Getcoll" PURGE="0" COMMENT="" />
    <EXPORT ORDINAL="2287" NAME="_Getctype" PURGE="0" COMMENT="" />
    <EXPORT ORDINAL="2288" NAME="_Getcvt" PURGE="0" COMMENT="" />
    <EXPORT ORDINAL="2289" NAME="_Hugeval" PURGE="-1" COMMENT="" />
    <EXPORT ORDINAL="2290" NAME="_Inf" PURGE="-1" COMMENT="" />
    <EXPORT ORDINAL="2291" NAME="_LCosh" PURGE="0" COMMENT="" />
    <EXPORT ORDINAL="2292" NAME="_LDenorm" PURGE="-1" COMMENT="" />
    <EXPORT ORDINAL="2293" NAME="_LDscale" PURGE="0" COMMENT="" />
    <EXPORT ORDINAL="2294" NAME="_LDtest" PURGE="0" COMMENT="" />
    <EXPORT ORDINAL="2295" NAME="_LEps" PURGE="-1" COMMENT="" />
    <EXPORT ORDINAL="2296" NAME="_LExp" PURGE="0" COMMENT="" />
    <EXPORT ORDINAL="2297" NAME="_LInf" PURGE="-1" COMMENT="" />
    <EXPORT ORDINAL="2298" NAME="_LNan" PURGE="-1" COMMENT="" />
    <EXPORT ORDINAL="2299" NAME="_LPoly" PURGE="0" COMMENT="" />
    <EXPORT ORDINAL="2300" NAME="_LRteps" PURGE="-1" COMMENT="" />
    <EXPORT ORDINAL="2301" NAME="_LSinh" PURGE="0" COMMENT="" />
    <EXPORT ORDINAL="2302" NAME="_LSnan" PURGE="-1" COMMENT="" />
    <EXPORT ORDINAL="2303" NAME="_LXbig" PURGE="-1" COMMENT="" />
    <EXPORT ORDINAL="2304" NAME="_Mbrtowc" PURGE="0" COMMENT="" />
    <EXPORT ORDINAL="2305" NAME="_Nan" PURGE="-1" COMMENT="" />
    <EXPORT ORDINAL="2306" NAME="_Poly" PURGE="0" COMMENT="" />
    <EXPORT ORDINAL="2307" NAME="_Rteps" PURGE="-1" COMMENT="" />
    <EXPORT ORDINAL="2308" NAME="_Sinh" PURGE="0" COMMENT="" />
    <EXPORT ORDINAL="2309" NAME="_Snan" PURGE="-1" COMMENT="" />
    <EXPORT ORDINAL="2310" NAME="_Stod" PURGE="0" COMMENT="" />
    <EXPORT ORDINAL="2311" NAME="_Stof" PURGE="0" COMMENT="" />
    <EXPORT ORDINAL="2312" NAME="_Stold" PURGE="0" COMMENT="" />
    <EXPORT ORDINAL="2313" NAME="_Strcoll" PURGE="0" COMMENT="" />
    <EXPORT ORDINAL="2314" NAME="_Strxfrm" PURGE="0" COMMENT="" />
    <EXPORT ORDINAL="2315" NAME="_Tolower" PURGE="0" COMMENT="" />
    <EXPORT ORDINAL="2316" NAME="_Toupper" PURGE="0" COMMENT="" />
    <EXPORT ORDINAL="2317" NAME="_Wcrtomb" PURGE="0" COMMENT="" />
    <EXPORT ORDINAL="2318" NAME="_Xbig" PURGE="-1" COMMENT="" />
    <EXPORT ORDINAL="2319" NAME="__Wcrtomb_lk" PURGE="0" COMMENT="" />
    <EXPORT ORDINAL="2320" NAME="btowc" PURGE="-1" COMMENT="" FOWARDLIBRARY="MSVCRT.DLL" FOWARDSYMBOL="btowc" />
    <EXPORT ORDINAL="2321" NAME="mbrlen" PURGE="-1" COMMENT="" FOWARDLIBRARY="MSVCRT.DLL" FOWARDSYMBOL="mbrlen" />
    <EXPORT ORDINAL="2322" NAME="mbrtowc" PURGE="-1" COMMENT="" FOWARDLIBRARY="MSVCRT.DLL" FOWARDSYMBOL="mbrtowc" />
    <EXPORT ORDINAL="2323" NAME="mbsrtowcs" PURGE="-1" COMMENT="" FOWARDLIBRARY="MSVCRT.DLL" FOWARDSYMBOL="mbsrtowcs" />
    <EXPORT ORDINAL="2324" NAME="towctrans" PURGE="0" COMMENT="" />
    <EXPORT ORDINAL="2325" NAME="wcrtomb" PURGE="-1" COMMENT="" FOWARDLIBRARY="MSVCRT.DLL" FOWARDSYMBOL="wcrtomb" />
    <EXPORT ORDINAL="2326" NAME="wcsrtombs" PURGE="-1" COMMENT="" FOWARDLIBRARY="MSVCRT.DLL" FOWARDSYMBOL="wcsrtombs" />
    <EXPORT ORDINAL="2327" NAME="wctob" PURGE="-1" COMMENT="" FOWARDLIBRARY="MSVCRT.DLL" FOWARDSYMBOL="wctob" />
    <EXPORT ORDINAL="2328" NAME="wctrans" PURGE="0" COMMENT="" />
    <EXPORT ORDINAL="2329" NAME="wctype" PURGE="0" COMMENT="" />
</LIBRARY>

